00000000  7F45              jg 0x47
00000002  4C                dec esp
00000003  46                inc esi
00000004  0201              add al,[ecx]
00000006  0100              add [eax],eax
00000008  0000              add [eax],al
0000000A  0000              add [eax],al
0000000C  0000              add [eax],al
0000000E  0000              add [eax],al
00000010  0200              add al,[eax]
00000012  3E0001            add [ds:ecx],al
00000015  0000              add [eax],al
00000017  00700B            add [eax+0xb],dh
0000001A  40                inc eax
0000001B  0000              add [eax],al
0000001D  0000              add [eax],al
0000001F  004000            add [eax+0x0],al
00000022  0000              add [eax],al
00000024  0000              add [eax],al
00000026  0000              add [eax],al
00000028  6825000000        push dword 0x25
0000002D  0000              add [eax],al
0000002F  0000              add [eax],al
00000031  0000              add [eax],al
00000033  004000            add [eax+0x0],al
00000036  3800              cmp [eax],al
00000038  0900              or [eax],eax
0000003A  40                inc eax
0000003B  001C00            add [eax+eax],bl
0000003E  1B00              sbb eax,[eax]
00000040  06                push es
00000041  0000              add [eax],al
00000043  000500000040      add [dword 0x40000000],al
00000049  0000              add [eax],al
0000004B  0000              add [eax],al
0000004D  0000              add [eax],al
0000004F  004000            add [eax+0x0],al
00000052  40                inc eax
00000053  0000              add [eax],al
00000055  0000              add [eax],al
00000057  004000            add [eax+0x0],al
0000005A  40                inc eax
0000005B  0000              add [eax],al
0000005D  0000              add [eax],al
0000005F  00F8              add al,bh
00000061  0100              add [eax],eax
00000063  0000              add [eax],al
00000065  0000              add [eax],al
00000067  00F8              add al,bh
00000069  0100              add [eax],eax
0000006B  0000              add [eax],al
0000006D  0000              add [eax],al
0000006F  0008              add [eax],cl
00000071  0000              add [eax],al
00000073  0000              add [eax],al
00000075  0000              add [eax],al
00000077  0003              add [ebx],al
00000079  0000              add [eax],al
0000007B  000400            add [eax+eax],al
0000007E  0000              add [eax],al
00000080  3802              cmp [edx],al
00000082  0000              add [eax],al
00000084  0000              add [eax],al
00000086  0000              add [eax],al
00000088  3802              cmp [edx],al
0000008A  40                inc eax
0000008B  0000              add [eax],al
0000008D  0000              add [eax],al
0000008F  0038              add [eax],bh
00000091  024000            add al,[eax+0x0]
00000094  0000              add [eax],al
00000096  0000              add [eax],al
00000098  1C00              sbb al,0x0
0000009A  0000              add [eax],al
0000009C  0000              add [eax],al
0000009E  0000              add [eax],al
000000A0  1C00              sbb al,0x0
000000A2  0000              add [eax],al
000000A4  0000              add [eax],al
000000A6  0000              add [eax],al
000000A8  0100              add [eax],eax
000000AA  0000              add [eax],al
000000AC  0000              add [eax],al
000000AE  0000              add [eax],al
000000B0  0100              add [eax],eax
000000B2  0000              add [eax],al
000000B4  0500000000        add eax,0x0
000000B9  0000              add [eax],al
000000BB  0000              add [eax],al
000000BD  0000              add [eax],al
000000BF  0000              add [eax],al
000000C1  004000            add [eax+0x0],al
000000C4  0000              add [eax],al
000000C6  0000              add [eax],al
000000C8  0000              add [eax],al
000000CA  40                inc eax
000000CB  0000              add [eax],al
000000CD  0000              add [eax],al
000000CF  002C1A            add [edx+ebx],ch
000000D2  0000              add [eax],al
000000D4  0000              add [eax],al
000000D6  0000              add [eax],al
000000D8  2C1A              sub al,0x1a
000000DA  0000              add [eax],al
000000DC  0000              add [eax],al
000000DE  0000              add [eax],al
000000E0  0000              add [eax],al
000000E2  2000              and [eax],al
000000E4  0000              add [eax],al
000000E6  0000              add [eax],al
000000E8  0100              add [eax],eax
000000EA  0000              add [eax],al
000000EC  06                push es
000000ED  0000              add [eax],al
000000EF  0010              add [eax],dl
000000F1  1E                push ds
000000F2  0000              add [eax],al
000000F4  0000              add [eax],al
000000F6  0000              add [eax],al
000000F8  101E              adc [esi],bl
000000FA  60                pusha
000000FB  0000              add [eax],al
000000FD  0000              add [eax],al
000000FF  0010              add [eax],dl
00000101  1E                push ds
00000102  60                pusha
00000103  0000              add [eax],al
00000105  0000              add [eax],al
00000107  000C06            add [esi+eax],cl
0000010A  0000              add [eax],al
0000010C  0000              add [eax],al
0000010E  0000              add [eax],al
00000110  3807              cmp [edi],al
00000112  0000              add [eax],al
00000114  0000              add [eax],al
00000116  0000              add [eax],al
00000118  0000              add [eax],al
0000011A  2000              and [eax],al
0000011C  0000              add [eax],al
0000011E  0000              add [eax],al
00000120  0200              add al,[eax]
00000122  0000              add [eax],al
00000124  06                push es
00000125  0000              add [eax],al
00000127  0028              add [eax],ch
00000129  1E                push ds
0000012A  0000              add [eax],al
0000012C  0000              add [eax],al
0000012E  0000              add [eax],al
00000130  281E              sub [esi],bl
00000132  60                pusha
00000133  0000              add [eax],al
00000135  0000              add [eax],al
00000137  0028              add [eax],ch
00000139  1E                push ds
0000013A  60                pusha
0000013B  0000              add [eax],al
0000013D  0000              add [eax],al
0000013F  00D0              add al,dl
00000141  0100              add [eax],eax
00000143  0000              add [eax],al
00000145  0000              add [eax],al
00000147  00D0              add al,dl
00000149  0100              add [eax],eax
0000014B  0000              add [eax],al
0000014D  0000              add [eax],al
0000014F  0008              add [eax],cl
00000151  0000              add [eax],al
00000153  0000              add [eax],al
00000155  0000              add [eax],al
00000157  000400            add [eax+eax],al
0000015A  0000              add [eax],al
0000015C  0400              add al,0x0
0000015E  0000              add [eax],al
00000160  54                push esp
00000161  0200              add al,[eax]
00000163  0000              add [eax],al
00000165  0000              add [eax],al
00000167  00540240          add [edx+eax+0x40],dl
0000016B  0000              add [eax],al
0000016D  0000              add [eax],al
0000016F  00540240          add [edx+eax+0x40],dl
00000173  0000              add [eax],al
00000175  0000              add [eax],al
00000177  00440000          add [eax+eax+0x0],al
0000017B  0000              add [eax],al
0000017D  0000              add [eax],al
0000017F  00440000          add [eax+eax+0x0],al
00000183  0000              add [eax],al
00000185  0000              add [eax],al
00000187  000400            add [eax+eax],al
0000018A  0000              add [eax],al
0000018C  0000              add [eax],al
0000018E  0000              add [eax],al
00000190  50                push eax
00000191  E574              in eax,0x74
00000193  640400            fs add al,0x0
00000196  0000              add [eax],al
00000198  8817              mov [edi],dl
0000019A  0000              add [eax],al
0000019C  0000              add [eax],al
0000019E  0000              add [eax],al
000001A0  8817              mov [edi],dl
000001A2  40                inc eax
000001A3  0000              add [eax],al
000001A5  0000              add [eax],al
000001A7  008817400000      add [eax+0x4017],cl
000001AD  0000              add [eax],al
000001AF  007C0000          add [eax+eax+0x0],bh
000001B3  0000              add [eax],al
000001B5  0000              add [eax],al
000001B7  007C0000          add [eax+eax+0x0],bh
000001BB  0000              add [eax],al
000001BD  0000              add [eax],al
000001BF  000400            add [eax+eax],al
000001C2  0000              add [eax],al
000001C4  0000              add [eax],al
000001C6  0000              add [eax],al
000001C8  51                push ecx
000001C9  E574              in eax,0x74
000001CB  6406              fs push es
000001CD  0000              add [eax],al
000001CF  0000              add [eax],al
000001D1  0000              add [eax],al
000001D3  0000              add [eax],al
000001D5  0000              add [eax],al
000001D7  0000              add [eax],al
000001D9  0000              add [eax],al
000001DB  0000              add [eax],al
000001DD  0000              add [eax],al
000001DF  0000              add [eax],al
000001E1  0000              add [eax],al
000001E3  0000              add [eax],al
000001E5  0000              add [eax],al
000001E7  0000              add [eax],al
000001E9  0000              add [eax],al
000001EB  0000              add [eax],al
000001ED  0000              add [eax],al
000001EF  0000              add [eax],al
000001F1  0000              add [eax],al
000001F3  0000              add [eax],al
000001F5  0000              add [eax],al
000001F7  0010              add [eax],dl
000001F9  0000              add [eax],al
000001FB  0000              add [eax],al
000001FD  0000              add [eax],al
000001FF  0052E5            add [edx-0x1b],dl
00000202  7464              jz 0x268
00000204  0400              add al,0x0
00000206  0000              add [eax],al
00000208  101E              adc [esi],bl
0000020A  0000              add [eax],al
0000020C  0000              add [eax],al
0000020E  0000              add [eax],al
00000210  101E              adc [esi],bl
00000212  60                pusha
00000213  0000              add [eax],al
00000215  0000              add [eax],al
00000217  0010              add [eax],dl
00000219  1E                push ds
0000021A  60                pusha
0000021B  0000              add [eax],al
0000021D  0000              add [eax],al
0000021F  00F0              add al,dh
00000221  0100              add [eax],eax
00000223  0000              add [eax],al
00000225  0000              add [eax],al
00000227  00F0              add al,dh
00000229  0100              add [eax],eax
0000022B  0000              add [eax],al
0000022D  0000              add [eax],al
0000022F  0001              add [ecx],al
00000231  0000              add [eax],al
00000233  0000              add [eax],al
00000235  0000              add [eax],al
00000237  002F              add [edi],ch
00000239  6C                insb
0000023A  696236342F6C64    imul esp,[edx+0x36],dword 0x646c2f34
00000241  2D6C696E75        sub eax,0x756e696c
00000246  782D              js 0x275
00000248  7838              js 0x282
0000024A  362D36342E73      ss sub eax,0x732e3436
00000250  6F                outsd
00000251  2E3200            xor al,[cs:eax]
00000254  0400              add al,0x0
00000256  0000              add [eax],al
00000258  1000              adc [eax],al
0000025A  0000              add [eax],al
0000025C  0100              add [eax],eax
0000025E  0000              add [eax],al
00000260  47                inc edi
00000261  4E                dec esi
00000262  55                push ebp
00000263  0000              add [eax],al
00000265  0000              add [eax],al
00000267  0002              add [edx],al
00000269  0000              add [eax],al
0000026B  0006              add [esi],al
0000026D  0000              add [eax],al
0000026F  0018              add [eax],bl
00000271  0000              add [eax],al
00000273  000400            add [eax+eax],al
00000276  0000              add [eax],al
00000278  1400              adc al,0x0
0000027A  0000              add [eax],al
0000027C  0300              add eax,[eax]
0000027E  0000              add [eax],al
00000280  47                inc edi
00000281  4E                dec esi
00000282  55                push ebp
00000283  005E8C            add [esi-0x74],bl
00000286  222C36            and ch,[esi+esi]
00000289  43                inc ebx
0000028A  94                xchg eax,esp
0000028B  C169DCE0          shr dword [ecx-0x24],byte 0xe0
0000028F  93                xchg eax,ebx
00000290  DEBC3F03C072EC    fidivr word [edi+edi-0x138d3ffd]
00000297  59                pop ecx
00000298  0300              add eax,[eax]
0000029A  0000              add [eax],al
0000029C  1900              sbb [eax],eax
0000029E  0000              add [eax],al
000002A0  0100              add [eax],eax
000002A2  0000              add [eax],al
000002A4  06                push es
000002A5  0000              add [eax],al
000002A7  0030              add [eax],dh
000002A9  0100              add [eax],eax
000002AB  00C0              add al,al
000002AD  004002            add [eax+0x2],al
000002B0  1900              sbb [eax],eax
000002B2  0000              add [eax],al
000002B4  1B00              sbb eax,[eax]
000002B6  0000              add [eax],al
000002B8  0000              add [eax],al
000002BA  0000              add [eax],al
000002BC  C4890590A7DD      les ecx,[ecx-0x22586ffb]
000002C2  A36BC4B99C        mov [0x9cb9c46b],eax
000002C7  40                inc eax
000002C8  39F2              cmp edx,esi
000002CA  8B1C00            mov ebx,[eax+eax]
000002CD  0000              add [eax],al
000002CF  0000              add [eax],al
000002D1  0000              add [eax],al
000002D3  0000              add [eax],al
000002D5  0000              add [eax],al
000002D7  0000              add [eax],al
000002D9  0000              add [eax],al
000002DB  0000              add [eax],al
000002DD  0000              add [eax],al
000002DF  0000              add [eax],al
000002E1  0000              add [eax],al
000002E3  0000              add [eax],al
000002E5  0000              add [eax],al
000002E7  008E00000012      add [esi+0x12000000],cl
000002ED  0000              add [eax],al
000002EF  0000              add [eax],al
000002F1  0000              add [eax],al
000002F3  0000              add [eax],al
000002F5  0000              add [eax],al
000002F7  0000              add [eax],al
000002F9  0000              add [eax],al
000002FB  0000              add [eax],al
000002FD  0000              add [eax],al
000002FF  006100            add [ecx+0x0],ah
00000302  0000              add [eax],al
00000304  1200              adc al,[eax]
00000306  0000              add [eax],al
00000308  0000              add [eax],al
0000030A  0000              add [eax],al
0000030C  0000              add [eax],al
0000030E  0000              add [eax],al
00000310  0000              add [eax],al
00000312  0000              add [eax],al
00000314  0000              add [eax],al
00000316  0000              add [eax],al
00000318  3E0000            add [ds:eax],al
0000031B  0012              add [edx],dl
0000031D  0000              add [eax],al
0000031F  0000              add [eax],al
00000321  0000              add [eax],al
00000323  0000              add [eax],al
00000325  0000              add [eax],al
00000327  0000              add [eax],al
00000329  0000              add [eax],al
0000032B  0000              add [eax],al
0000032D  0000              add [eax],al
0000032F  005300            add [ebx+0x0],dl
00000332  0000              add [eax],al
00000334  1200              adc al,[eax]
00000336  0000              add [eax],al
00000338  0000              add [eax],al
0000033A  0000              add [eax],al
0000033C  0000              add [eax],al
0000033E  0000              add [eax],al
00000340  0000              add [eax],al
00000342  0000              add [eax],al
00000344  0000              add [eax],al
00000346  0000              add [eax],al
00000348  2D00000012        sub eax,0x12000000
0000034D  0000              add [eax],al
0000034F  0000              add [eax],al
00000351  0000              add [eax],al
00000353  0000              add [eax],al
00000355  0000              add [eax],al
00000357  0000              add [eax],al
00000359  0000              add [eax],al
0000035B  0000              add [eax],al
0000035D  0000              add [eax],al
0000035F  005A00            add [edx+0x0],bl
00000362  0000              add [eax],al
00000364  1200              adc al,[eax]
00000366  0000              add [eax],al
00000368  0000              add [eax],al
0000036A  0000              add [eax],al
0000036C  0000              add [eax],al
0000036E  0000              add [eax],al
00000370  0000              add [eax],al
00000372  0000              add [eax],al
00000374  0000              add [eax],al
00000376  0000              add [eax],al
00000378  C10000            rol dword [eax],byte 0x0
0000037B  0012              add [edx],dl
0000037D  0000              add [eax],al
0000037F  0000              add [eax],al
00000381  0000              add [eax],al
00000383  0000              add [eax],al
00000385  0000              add [eax],al
00000387  0000              add [eax],al
00000389  0000              add [eax],al
0000038B  0000              add [eax],al
0000038D  0000              add [eax],al
0000038F  007200            add [edx+0x0],dh
00000392  0000              add [eax],al
00000394  1200              adc al,[eax]
00000396  0000              add [eax],al
00000398  0000              add [eax],al
0000039A  0000              add [eax],al
0000039C  0000              add [eax],al
0000039E  0000              add [eax],al
000003A0  0000              add [eax],al
000003A2  0000              add [eax],al
000003A4  0000              add [eax],al
000003A6  0000              add [eax],al
000003A8  4C                dec esp
000003A9  0000              add [eax],al
000003AB  0012              add [edx],dl
000003AD  0000              add [eax],al
000003AF  0000              add [eax],al
000003B1  0000              add [eax],al
000003B3  0000              add [eax],al
000003B5  0000              add [eax],al
000003B7  0000              add [eax],al
000003B9  0000              add [eax],al
000003BB  0000              add [eax],al
000003BD  0000              add [eax],al
000003BF  007900            add [ecx+0x0],bh
000003C2  0000              add [eax],al
000003C4  1200              adc al,[eax]
000003C6  0000              add [eax],al
000003C8  0000              add [eax],al
000003CA  0000              add [eax],al
000003CC  0000              add [eax],al
000003CE  0000              add [eax],al
000003D0  0000              add [eax],al
000003D2  0000              add [eax],al
000003D4  0000              add [eax],al
000003D6  0000              add [eax],al
000003D8  B200              mov dl,0x0
000003DA  0000              add [eax],al
000003DC  1200              adc al,[eax]
000003DE  0000              add [eax],al
000003E0  0000              add [eax],al
000003E2  0000              add [eax],al
000003E4  0000              add [eax],al
000003E6  0000              add [eax],al
000003E8  0000              add [eax],al
000003EA  0000              add [eax],al
000003EC  0000              add [eax],al
000003EE  0000              add [eax],al
000003F0  AA                stosb
000003F1  0000              add [eax],al
000003F3  0012              add [edx],dl
000003F5  0000              add [eax],al
000003F7  0000              add [eax],al
000003F9  0000              add [eax],al
000003FB  0000              add [eax],al
000003FD  0000              add [eax],al
000003FF  0000              add [eax],al
00000401  0000              add [eax],al
00000403  0000              add [eax],al
00000405  0000              add [eax],al
00000407  00E5              add ch,ah
00000409  0000              add [eax],al
0000040B  0020              add [eax],ah
0000040D  0000              add [eax],al
0000040F  0000              add [eax],al
00000411  0000              add [eax],al
00000413  0000              add [eax],al
00000415  0000              add [eax],al
00000417  0000              add [eax],al
00000419  0000              add [eax],al
0000041B  0000              add [eax],al
0000041D  0000              add [eax],al
0000041F  008000000012      add [eax+0x12000000],al
00000425  0000              add [eax],al
00000427  0000              add [eax],al
00000429  0000              add [eax],al
0000042B  0000              add [eax],al
0000042D  0000              add [eax],al
0000042F  0000              add [eax],al
00000431  0000              add [eax],al
00000433  0000              add [eax],al
00000435  0000              add [eax],al
00000437  0028              add [eax],ch
00000439  0000              add [eax],al
0000043B  0012              add [edx],dl
0000043D  0000              add [eax],al
0000043F  0000              add [eax],al
00000441  0000              add [eax],al
00000443  0000              add [eax],al
00000445  0000              add [eax],al
00000447  0000              add [eax],al
00000449  0000              add [eax],al
0000044B  0000              add [eax],al
0000044D  0000              add [eax],al
0000044F  00DD              add ch,bl
00000451  0000              add [eax],al
00000453  0012              add [edx],dl
00000455  0000              add [eax],al
00000457  0000              add [eax],al
00000459  0000              add [eax],al
0000045B  0000              add [eax],al
0000045D  0000              add [eax],al
0000045F  0000              add [eax],al
00000461  0000              add [eax],al
00000463  0000              add [eax],al
00000465  0000              add [eax],al
00000467  008700000012      add [edi+0x12000000],al
0000046D  0000              add [eax],al
0000046F  0000              add [eax],al
00000471  0000              add [eax],al
00000473  0000              add [eax],al
00000475  0000              add [eax],al
00000477  0000              add [eax],al
00000479  0000              add [eax],al
0000047B  0000              add [eax],al
0000047D  0000              add [eax],al
0000047F  0018              add [eax],bl
00000481  0000              add [eax],al
00000483  0012              add [edx],dl
00000485  0000              add [eax],al
00000487  0000              add [eax],al
00000489  0000              add [eax],al
0000048B  0000              add [eax],al
0000048D  0000              add [eax],al
0000048F  0000              add [eax],al
00000491  0000              add [eax],al
00000493  0000              add [eax],al
00000495  0000              add [eax],al
00000497  009C0000001200    add [eax+eax+0x120000],bl
0000049E  0000              add [eax],al
000004A0  0000              add [eax],al
000004A2  0000              add [eax],al
000004A4  0000              add [eax],al
000004A6  0000              add [eax],al
000004A8  0000              add [eax],al
000004AA  0000              add [eax],al
000004AC  0000              add [eax],al
000004AE  0000              add [eax],al
000004B0  1000              adc [eax],al
000004B2  0000              add [eax],al
000004B4  1200              adc al,[eax]
000004B6  0000              add [eax],al
000004B8  0000              add [eax],al
000004BA  0000              add [eax],al
000004BC  0000              add [eax],al
000004BE  0000              add [eax],al
000004C0  0000              add [eax],al
000004C2  0000              add [eax],al
000004C4  0000              add [eax],al
000004C6  0000              add [eax],al
000004C8  0B00              or eax,[eax]
000004CA  0000              add [eax],al
000004CC  1200              adc al,[eax]
000004CE  0000              add [eax],al
000004D0  0000              add [eax],al
000004D2  0000              add [eax],al
000004D4  0000              add [eax],al
000004D6  0000              add [eax],al
000004D8  0000              add [eax],al
000004DA  0000              add [eax],al
000004DC  0000              add [eax],al
000004DE  0000              add [eax],al
000004E0  A300000012        mov [0x12000000],eax
000004E5  0000              add [eax],al
000004E7  0000              add [eax],al
000004E9  0000              add [eax],al
000004EB  0000              add [eax],al
000004ED  0000              add [eax],al
000004EF  0000              add [eax],al
000004F1  0000              add [eax],al
000004F3  0000              add [eax],al
000004F5  0000              add [eax],al
000004F7  004500            add [ebp+0x0],al
000004FA  0000              add [eax],al
000004FC  1200              adc al,[eax]
000004FE  0000              add [eax],al
00000500  0000              add [eax],al
00000502  0000              add [eax],al
00000504  0000              add [eax],al
00000506  0000              add [eax],al
00000508  0000              add [eax],al
0000050A  0000              add [eax],al
0000050C  0000              add [eax],al
0000050E  0000              add [eax],al
00000510  B800000012        mov eax,0x12000000
00000515  0000              add [eax],al
00000517  0000              add [eax],al
00000519  0000              add [eax],al
0000051B  0000              add [eax],al
0000051D  0000              add [eax],al
0000051F  0000              add [eax],al
00000521  0000              add [eax],al
00000523  0000              add [eax],al
00000525  0000              add [eax],al
00000527  00D4              add ah,dl
00000529  0000              add [eax],al
0000052B  0021              add [ecx],ah
0000052D  0019              add [ecx],bl
0000052F  0020              add [eax],ah
00000531  2460              and al,0x60
00000533  0000              add [eax],al
00000535  0000              add [eax],al
00000537  0008              add [eax],cl
00000539  0000              add [eax],al
0000053B  0000              add [eax],al
0000053D  0000              add [eax],al
0000053F  00D5              add ch,dl
00000541  0000              add [eax],al
00000543  0021              add [ecx],ah
00000545  0019              add [ecx],bl
00000547  0020              add [eax],ah
00000549  2460              and al,0x60
0000054B  0000              add [eax],al
0000054D  0000              add [eax],al
0000054F  0008              add [eax],cl
00000551  0000              add [eax],al
00000553  0000              add [eax],al
00000555  0000              add [eax],al
00000557  00D3              add bl,dl
00000559  0000              add [eax],al
0000055B  0011              add [ecx],dl
0000055D  0019              add [ecx],bl
0000055F  0020              add [eax],ah
00000561  2460              and al,0x60
00000563  0000              add [eax],al
00000565  0000              add [eax],al
00000567  0008              add [eax],cl
00000569  0000              add [eax],al
0000056B  0000              add [eax],al
0000056D  0000              add [eax],al
0000056F  009500000011      add [ebp+0x11000000],dl
00000575  0019              add [ecx],bl
00000577  0028              add [eax],ch
00000579  2460              and al,0x60
0000057B  0000              add [eax],al
0000057D  0000              add [eax],al
0000057F  0008              add [eax],cl
00000581  0000              add [eax],al
00000583  0000              add [eax],al
00000585  0000              add [eax],al
00000587  0000              add [eax],al
00000589  6C                insb
0000058A  6962632E736F2E    imul esp,[edx+0x63],dword 0x2e6f732e
00000591  36006578          add [ss:ebp+0x78],ah
00000595  697400737072696E  imul esi,[eax+eax+0x73],dword 0x6e697270
0000059D  7466              jz 0x605
0000059F  005F5F            add [edi+0x5f],bl
000005A2  69736F6339395F    imul esi,[ebx+0x6f],dword 0x5f393963
000005A9  7373              jnc 0x61e
000005AB  63616E            arpl [ecx+0x6e],sp
000005AE  660074696D        o16 add [ecx+ebp*2+0x6d],dh
000005B3  65005F5F          add [gs:edi+0x5f],bl
000005B7  7374              jnc 0x62d
000005B9  61                popa
000005BA  636B5F            arpl [ebx+0x5f],bp
000005BD  63686B            arpl [eax+0x6b],bp
000005C0  5F                pop edi
000005C1  6661              popaw
000005C3  696C006765747069  imul ebp,[eax+eax+0x67],dword 0x69707465
000005CB  64007374          add [fs:ebx+0x74],dh
000005CF  7264              jc 0x635
000005D1  7570              jnz 0x643
000005D3  006361            add [ebx+0x61],ah
000005D6  6C                insb
000005D7  6C                insb
000005D8  6F                outsd
000005D9  6300              arpl [eax],ax
000005DB  7374              jnc 0x651
000005DD  726C              jc 0x64b
000005DF  656E              gs outsb
000005E1  006D65            add [ebp+0x65],ch
000005E4  6D                insd
000005E5  7365              jnc 0x64c
000005E7  7400              jz 0x5e9
000005E9  5F                pop edi
000005EA  5F                pop edi
000005EB  657272            gs jc 0x660
000005EE  6E                outsb
000005EF  6F                outsd
000005F0  5F                pop edi
000005F1  6C                insb
000005F2  6F                outsd
000005F3  636174            arpl [ecx+0x74],sp
000005F6  696F6E006D656D    imul ebp,[edi+0x6e],dword 0x6d656d00
000005FD  636D70            arpl [ebp+0x70],bp
00000600  007075            add [eax+0x75],dh
00000603  7465              jz 0x66a
00000605  6E                outsb
00000606  7600              jna 0x608
00000608  6D                insd
00000609  656D              gs insd
0000060B  637079            arpl [eax+0x79],si
0000060E  006D61            add [ebp+0x61],ch
00000611  6C                insb
00000612  6C                insb
00000613  6F                outsd
00000614  6300              arpl [eax],ax
00000616  67657465          gs jz 0x67f
0000061A  6E                outsb
0000061B  7600              jna 0x61d
0000061D  7374              jnc 0x693
0000061F  64657272          gs jc 0x695
00000623  006578            add [ebp+0x78],ah
00000626  65637670          arpl [gs:esi+0x70],si
0000062A  006677            add [esi+0x77],ah
0000062D  7269              jc 0x698
0000062F  7465              jz 0x696
00000631  006670            add [esi+0x70],ah
00000634  7269              jc 0x69f
00000636  6E                outsb
00000637  7466              jz 0x69f
00000639  006174            add [ecx+0x74],ah
0000063C  6F                outsd
0000063D  6C                insb
0000063E  6C                insb
0000063F  007374            add [ebx+0x74],dh
00000642  7265              jc 0x6a9
00000644  7272              jc 0x6b8
00000646  6F                outsd
00000647  7200              jc 0x649
00000649  5F                pop edi
0000064A  5F                pop edi
0000064B  6C                insb
0000064C  6962635F737461    imul esp,[edx+0x63],dword 0x6174735f
00000653  7274              jc 0x6c9
00000655  5F                pop edi
00000656  6D                insd
00000657  61                popa
00000658  696E005F5F656E    imul ebp,[esi+0x0],dword 0x6e655f5f
0000065F  7669              jna 0x6ca
00000661  726F              jc 0x6d2
00000663  6E                outsb
00000664  005F5F            add [edi+0x5f],bl
00000667  7873              js 0x6dc
00000669  7461              jz 0x6cc
0000066B  7400              jz 0x66d
0000066D  5F                pop edi
0000066E  5F                pop edi
0000066F  676D              a16 insd
00000671  6F                outsd
00000672  6E                outsb
00000673  5F                pop edi
00000674  7374              jnc 0x6ea
00000676  61                popa
00000677  7274              jc 0x6ed
00000679  5F                pop edi
0000067A  5F                pop edi
0000067B  00474C            add [edi+0x4c],al
0000067E  49                dec ecx
0000067F  42                inc edx
00000680  43                inc ebx
00000681  5F                pop edi
00000682  322E              xor ch,[esi]
00000684  37                aaa
00000685  00474C            add [edi+0x4c],al
00000688  49                dec ecx
00000689  42                inc edx
0000068A  43                inc ebx
0000068B  5F                pop edi
0000068C  322E              xor ch,[esi]
0000068E  313400            xor [eax+eax],esi
00000691  47                inc edi
00000692  4C                dec esp
00000693  49                dec ecx
00000694  42                inc edx
00000695  43                inc ebx
00000696  5F                pop edi
00000697  322E              xor ch,[esi]
00000699  3400              xor al,0x0
0000069B  47                inc edi
0000069C  4C                dec esp
0000069D  49                dec ecx
0000069E  42                inc edx
0000069F  43                inc ebx
000006A0  5F                pop edi
000006A1  322E              xor ch,[esi]
000006A3  322E              xor ch,[esi]
000006A5  3500000000        xor eax,0x0
000006AA  0200              add al,[eax]
000006AC  0200              add al,[eax]
000006AE  0200              add al,[eax]
000006B0  0200              add al,[eax]
000006B2  0300              add eax,[eax]
000006B4  0200              add al,[eax]
000006B6  0200              add al,[eax]
000006B8  0200              add al,[eax]
000006BA  0200              add al,[eax]
000006BC  0200              add al,[eax]
000006BE  0200              add al,[eax]
000006C0  0200              add al,[eax]
000006C2  0000              add [eax],al
000006C4  0400              add al,0x0
000006C6  0200              add al,[eax]
000006C8  0200              add al,[eax]
000006CA  0200              add al,[eax]
000006CC  0500020002        add eax,0x2000200
000006D1  0002              add [edx],al
000006D3  0002              add [edx],al
000006D5  0002              add [edx],al
000006D7  0002              add [edx],al
000006D9  0002              add [edx],al
000006DB  0002              add [edx],al
000006DD  0002              add [edx],al
000006DF  0002              add [edx],al
000006E1  0000              add [eax],al
000006E3  0000              add [eax],al
000006E5  0000              add [eax],al
000006E7  0001              add [ecx],al
000006E9  000400            add [eax+eax],al
000006EC  0100              add [eax],eax
000006EE  0000              add [eax],al
000006F0  1000              adc [eax],al
000006F2  0000              add [eax],al
000006F4  0000              add [eax],al
000006F6  0000              add [eax],al
000006F8  17                pop ss
000006F9  69690D00000500    imul ebp,[ecx+0xd],dword 0x50000
00000700  F4                hlt
00000701  0000              add [eax],al
00000703  0010              add [eax],dl
00000705  0000              add [eax],al
00000707  00949196060000    add [ecx+edx*4+0x696],dl
0000070E  0400              add al,0x0
00000710  FE00              inc byte [eax]
00000712  0000              add [eax],al
00000714  1000              adc [eax],al
00000716  0000              add [eax],al
00000718  1469              adc al,0x69
0000071A  690D000003000901  imul ecx,[dword 0x30000],dword 0x109
         -0000
00000724  1000              adc [eax],al
00000726  0000              add [eax],al
00000728  751A              jnz 0x744
0000072A  690900000200      imul ecx,[ecx],dword 0x20000
00000730  1301              adc eax,[ecx]
00000732  0000              add [eax],al
00000734  0000              add [eax],al
00000736  0000              add [eax],al
00000738  F8                clc
00000739  1F                pop ds
0000073A  60                pusha
0000073B  0000              add [eax],al
0000073D  0000              add [eax],al
0000073F  0006              add [esi],al
00000741  0000              add [eax],al
00000743  000D00000000      add [dword 0x0],cl
00000749  0000              add [eax],al
0000074B  0000              add [eax],al
0000074D  0000              add [eax],al
0000074F  0020              add [eax],ah
00000751  2460              and al,0x60
00000753  0000              add [eax],al
00000755  0000              add [eax],al
00000757  00050000001B      add [dword 0x1b000000],al
0000075D  0000              add [eax],al
0000075F  0000              add [eax],al
00000761  0000              add [eax],al
00000763  0000              add [eax],al
00000765  0000              add [eax],al
00000767  0028              add [eax],ch
00000769  2460              and al,0x60
0000076B  0000              add [eax],al
0000076D  0000              add [eax],al
0000076F  00050000001C      add [dword 0x1c000000],al
00000775  0000              add [eax],al
00000777  0000              add [eax],al
00000779  0000              add [eax],al
0000077B  0000              add [eax],al
0000077D  0000              add [eax],al
0000077F  0018              add [eax],bl
00000781  206000            and [eax+0x0],ah
00000784  0000              add [eax],al
00000786  0000              add [eax],al
00000788  07                pop es
00000789  0000              add [eax],al
0000078B  0001              add [ecx],al
0000078D  0000              add [eax],al
0000078F  0000              add [eax],al
00000791  0000              add [eax],al
00000793  0000              add [eax],al
00000795  0000              add [eax],al
00000797  0020              add [eax],ah
00000799  206000            and [eax+0x0],ah
0000079C  0000              add [eax],al
0000079E  0000              add [eax],al
000007A0  07                pop es
000007A1  0000              add [eax],al
000007A3  0002              add [edx],al
000007A5  0000              add [eax],al
000007A7  0000              add [eax],al
000007A9  0000              add [eax],al
000007AB  0000              add [eax],al
000007AD  0000              add [eax],al
000007AF  0028              add [eax],ch
000007B1  206000            and [eax+0x0],ah
000007B4  0000              add [eax],al
000007B6  0000              add [eax],al
000007B8  07                pop es
000007B9  0000              add [eax],al
000007BB  0003              add [ebx],al
000007BD  0000              add [eax],al
000007BF  0000              add [eax],al
000007C1  0000              add [eax],al
000007C3  0000              add [eax],al
000007C5  0000              add [eax],al
000007C7  0030              add [eax],dh
000007C9  206000            and [eax+0x0],ah
000007CC  0000              add [eax],al
000007CE  0000              add [eax],al
000007D0  07                pop es
000007D1  0000              add [eax],al
000007D3  000400            add [eax+eax],al
000007D6  0000              add [eax],al
000007D8  0000              add [eax],al
000007DA  0000              add [eax],al
000007DC  0000              add [eax],al
000007DE  0000              add [eax],al
000007E0  3820              cmp [eax],ah
000007E2  60                pusha
000007E3  0000              add [eax],al
000007E5  0000              add [eax],al
000007E7  0007              add [edi],al
000007E9  0000              add [eax],al
000007EB  000500000000      add [dword 0x0],al
000007F1  0000              add [eax],al
000007F3  0000              add [eax],al
000007F5  0000              add [eax],al
000007F7  004020            add [eax+0x20],al
000007FA  60                pusha
000007FB  0000              add [eax],al
000007FD  0000              add [eax],al
000007FF  0007              add [edi],al
00000801  0000              add [eax],al
00000803  0006              add [esi],al
00000805  0000              add [eax],al
00000807  0000              add [eax],al
00000809  0000              add [eax],al
0000080B  0000              add [eax],al
0000080D  0000              add [eax],al
0000080F  004820            add [eax+0x20],cl
00000812  60                pusha
00000813  0000              add [eax],al
00000815  0000              add [eax],al
00000817  0007              add [edi],al
00000819  0000              add [eax],al
0000081B  0007              add [edi],al
0000081D  0000              add [eax],al
0000081F  0000              add [eax],al
00000821  0000              add [eax],al
00000823  0000              add [eax],al
00000825  0000              add [eax],al
00000827  005020            add [eax+0x20],dl
0000082A  60                pusha
0000082B  0000              add [eax],al
0000082D  0000              add [eax],al
0000082F  0007              add [edi],al
00000831  0000              add [eax],al
00000833  0008              add [eax],cl
00000835  0000              add [eax],al
00000837  0000              add [eax],al
00000839  0000              add [eax],al
0000083B  0000              add [eax],al
0000083D  0000              add [eax],al
0000083F  005820            add [eax+0x20],bl
00000842  60                pusha
00000843  0000              add [eax],al
00000845  0000              add [eax],al
00000847  0007              add [edi],al
00000849  0000              add [eax],al
0000084B  0009              add [ecx],cl
0000084D  0000              add [eax],al
0000084F  0000              add [eax],al
00000851  0000              add [eax],al
00000853  0000              add [eax],al
00000855  0000              add [eax],al
00000857  006020            add [eax+0x20],ah
0000085A  60                pusha
0000085B  0000              add [eax],al
0000085D  0000              add [eax],al
0000085F  0007              add [edi],al
00000861  0000              add [eax],al
00000863  000A              add [edx],cl
00000865  0000              add [eax],al
00000867  0000              add [eax],al
00000869  0000              add [eax],al
0000086B  0000              add [eax],al
0000086D  0000              add [eax],al
0000086F  006820            add [eax+0x20],ch
00000872  60                pusha
00000873  0000              add [eax],al
00000875  0000              add [eax],al
00000877  0007              add [edi],al
00000879  0000              add [eax],al
0000087B  000B              add [ebx],cl
0000087D  0000              add [eax],al
0000087F  0000              add [eax],al
00000881  0000              add [eax],al
00000883  0000              add [eax],al
00000885  0000              add [eax],al
00000887  007020            add [eax+0x20],dh
0000088A  60                pusha
0000088B  0000              add [eax],al
0000088D  0000              add [eax],al
0000088F  0007              add [edi],al
00000891  0000              add [eax],al
00000893  000C00            add [eax+eax],cl
00000896  0000              add [eax],al
00000898  0000              add [eax],al
0000089A  0000              add [eax],al
0000089C  0000              add [eax],al
0000089E  0000              add [eax],al
000008A0  7820              js 0x8c2
000008A2  60                pusha
000008A3  0000              add [eax],al
000008A5  0000              add [eax],al
000008A7  0007              add [edi],al
000008A9  0000              add [eax],al
000008AB  000D00000000      add [dword 0x0],cl
000008B1  0000              add [eax],al
000008B3  0000              add [eax],al
000008B5  0000              add [eax],al
000008B7  008020600000      add [eax+0x6020],al
000008BD  0000              add [eax],al
000008BF  0007              add [edi],al
000008C1  0000              add [eax],al
000008C3  000E              add [esi],cl
000008C5  0000              add [eax],al
000008C7  0000              add [eax],al
000008C9  0000              add [eax],al
000008CB  0000              add [eax],al
000008CD  0000              add [eax],al
000008CF  008820600000      add [eax+0x6020],cl
000008D5  0000              add [eax],al
000008D7  0007              add [edi],al
000008D9  0000              add [eax],al
000008DB  000F              add [edi],cl
000008DD  0000              add [eax],al
000008DF  0000              add [eax],al
000008E1  0000              add [eax],al
000008E3  0000              add [eax],al
000008E5  0000              add [eax],al
000008E7  009020600000      add [eax+0x6020],dl
000008ED  0000              add [eax],al
000008EF  0007              add [edi],al
000008F1  0000              add [eax],al
000008F3  0010              add [eax],dl
000008F5  0000              add [eax],al
000008F7  0000              add [eax],al
000008F9  0000              add [eax],al
000008FB  0000              add [eax],al
000008FD  0000              add [eax],al
000008FF  009820600000      add [eax+0x6020],bl
00000905  0000              add [eax],al
00000907  0007              add [edi],al
00000909  0000              add [eax],al
0000090B  0011              add [ecx],dl
0000090D  0000              add [eax],al
0000090F  0000              add [eax],al
00000911  0000              add [eax],al
00000913  0000              add [eax],al
00000915  0000              add [eax],al
00000917  00A020600000      add [eax+0x6020],ah
0000091D  0000              add [eax],al
0000091F  0007              add [edi],al
00000921  0000              add [eax],al
00000923  0012              add [edx],dl
00000925  0000              add [eax],al
00000927  0000              add [eax],al
00000929  0000              add [eax],al
0000092B  0000              add [eax],al
0000092D  0000              add [eax],al
0000092F  00A820600000      add [eax+0x6020],ch
00000935  0000              add [eax],al
00000937  0007              add [edi],al
00000939  0000              add [eax],al
0000093B  0013              add [ebx],dl
0000093D  0000              add [eax],al
0000093F  0000              add [eax],al
00000941  0000              add [eax],al
00000943  0000              add [eax],al
00000945  0000              add [eax],al
00000947  00B020600000      add [eax+0x6020],dh
0000094D  0000              add [eax],al
0000094F  0007              add [edi],al
00000951  0000              add [eax],al
00000953  001400            add [eax+eax],dl
00000956  0000              add [eax],al
00000958  0000              add [eax],al
0000095A  0000              add [eax],al
0000095C  0000              add [eax],al
0000095E  0000              add [eax],al
00000960  B820600000        mov eax,0x6020
00000965  0000              add [eax],al
00000967  0007              add [edi],al
00000969  0000              add [eax],al
0000096B  001500000000      add [dword 0x0],dl
00000971  0000              add [eax],al
00000973  0000              add [eax],al
00000975  0000              add [eax],al
00000977  00C0              add al,al
00000979  206000            and [eax+0x0],ah
0000097C  0000              add [eax],al
0000097E  0000              add [eax],al
00000980  07                pop es
00000981  0000              add [eax],al
00000983  0016              add [esi],dl
00000985  0000              add [eax],al
00000987  0000              add [eax],al
00000989  0000              add [eax],al
0000098B  0000              add [eax],al
0000098D  0000              add [eax],al
0000098F  00C8              add al,cl
00000991  206000            and [eax+0x0],ah
00000994  0000              add [eax],al
00000996  0000              add [eax],al
00000998  07                pop es
00000999  0000              add [eax],al
0000099B  0017              add [edi],dl
0000099D  0000              add [eax],al
0000099F  0000              add [eax],al
000009A1  0000              add [eax],al
000009A3  0000              add [eax],al
000009A5  0000              add [eax],al
000009A7  00D0              add al,dl
000009A9  206000            and [eax+0x0],ah
000009AC  0000              add [eax],al
000009AE  0000              add [eax],al
000009B0  07                pop es
000009B1  0000              add [eax],al
000009B3  0018              add [eax],bl
000009B5  0000              add [eax],al
000009B7  0000              add [eax],al
000009B9  0000              add [eax],al
000009BB  0000              add [eax],al
000009BD  0000              add [eax],al
000009BF  004883            add [eax-0x7d],cl
000009C2  EC                in al,dx
000009C3  08488B            or [eax-0x75],cl
000009C6  052D162000        add eax,0x20162d
000009CB  48                dec eax
000009CC  85C0              test eax,eax
000009CE  7405              jz 0x9d5
000009D0  E8DB000000        call 0xab0
000009D5  48                dec eax
000009D6  83C408            add esp,byte +0x8
000009D9  C3                ret
000009DA  0000              add [eax],al
000009DC  0000              add [eax],al
000009DE  0000              add [eax],al
000009E0  FF3522162000      push dword [dword 0x201622]
000009E6  FF2524162000      jmp [dword 0x201624]
000009EC  0F1F4000          nop dword [eax+0x0]
000009F0  FF2522162000      jmp [dword 0x201622]
000009F6  6800000000        push dword 0x0
000009FB  E9E0FFFFFF        jmp 0x9e0
00000A00  FF251A162000      jmp [dword 0x20161a]
00000A06  6801000000        push dword 0x1
00000A0B  E9D0FFFFFF        jmp 0x9e0
00000A10  FF2512162000      jmp [dword 0x201612]
00000A16  6802000000        push dword 0x2
00000A1B  E9C0FFFFFF        jmp 0x9e0
00000A20  FF250A162000      jmp [dword 0x20160a]
00000A26  6803000000        push dword 0x3
00000A2B  E9B0FFFFFF        jmp 0x9e0
00000A30  FF2502162000      jmp [dword 0x201602]
00000A36  6804000000        push dword 0x4
00000A3B  E9A0FFFFFF        jmp 0x9e0
00000A40  FF25FA152000      jmp [dword 0x2015fa]
00000A46  6805000000        push dword 0x5
00000A4B  E990FFFFFF        jmp 0x9e0
00000A50  FF25F2152000      jmp [dword 0x2015f2]
00000A56  6806000000        push dword 0x6
00000A5B  E980FFFFFF        jmp 0x9e0
00000A60  FF25EA152000      jmp [dword 0x2015ea]
00000A66  6807000000        push dword 0x7
00000A6B  E970FFFFFF        jmp 0x9e0
00000A70  FF25E2152000      jmp [dword 0x2015e2]
00000A76  6808000000        push dword 0x8
00000A7B  E960FFFFFF        jmp 0x9e0
00000A80  FF25DA152000      jmp [dword 0x2015da]
00000A86  6809000000        push dword 0x9
00000A8B  E950FFFFFF        jmp 0x9e0
00000A90  FF25D2152000      jmp [dword 0x2015d2]
00000A96  680A000000        push dword 0xa
00000A9B  E940FFFFFF        jmp 0x9e0
00000AA0  FF25CA152000      jmp [dword 0x2015ca]
00000AA6  680B000000        push dword 0xb
00000AAB  E930FFFFFF        jmp 0x9e0
00000AB0  FF25C2152000      jmp [dword 0x2015c2]
00000AB6  680C000000        push dword 0xc
00000ABB  E920FFFFFF        jmp 0x9e0
00000AC0  FF25BA152000      jmp [dword 0x2015ba]
00000AC6  680D000000        push dword 0xd
00000ACB  E910FFFFFF        jmp 0x9e0
00000AD0  FF25B2152000      jmp [dword 0x2015b2]
00000AD6  680E000000        push dword 0xe
00000ADB  E900FFFFFF        jmp 0x9e0
00000AE0  FF25AA152000      jmp [dword 0x2015aa]
00000AE6  680F000000        push dword 0xf
00000AEB  E9F0FEFFFF        jmp 0x9e0
00000AF0  FF25A2152000      jmp [dword 0x2015a2]
00000AF6  6810000000        push dword 0x10
00000AFB  E9E0FEFFFF        jmp 0x9e0
00000B00  FF259A152000      jmp [dword 0x20159a]
00000B06  6811000000        push dword 0x11
00000B0B  E9D0FEFFFF        jmp 0x9e0
00000B10  FF2592152000      jmp [dword 0x201592]
00000B16  6812000000        push dword 0x12
00000B1B  E9C0FEFFFF        jmp 0x9e0
00000B20  FF258A152000      jmp [dword 0x20158a]
00000B26  6813000000        push dword 0x13
00000B2B  E9B0FEFFFF        jmp 0x9e0
00000B30  FF2582152000      jmp [dword 0x201582]
00000B36  6814000000        push dword 0x14
00000B3B  E9A0FEFFFF        jmp 0x9e0
00000B40  FF257A152000      jmp [dword 0x20157a]
00000B46  6815000000        push dword 0x15
00000B4B  E990FEFFFF        jmp 0x9e0
00000B50  FF2572152000      jmp [dword 0x201572]
00000B56  6816000000        push dword 0x16
00000B5B  E980FEFFFF        jmp 0x9e0
00000B60  FF256A152000      jmp [dword 0x20156a]
00000B66  6817000000        push dword 0x17
00000B6B  E970FEFFFF        jmp 0x9e0
00000B70  31ED              xor ebp,ebp
00000B72  49                dec ecx
00000B73  89D1              mov ecx,edx
00000B75  5E                pop esi
00000B76  48                dec eax
00000B77  89E2              mov edx,esp
00000B79  48                dec eax
00000B7A  83E4F0            and esp,byte -0x10
00000B7D  50                push eax
00000B7E  54                push esp
00000B7F  49                dec ecx
00000B80  C7C000174000      mov eax,0x401700
00000B86  48                dec eax
00000B87  C7C190164000      mov ecx,0x401690
00000B8D  48                dec eax
00000B8E  C7C7D4154000      mov edi,0x4015d4
00000B94  E8B7FEFFFF        call 0xa50
00000B99  F4                hlt
00000B9A  660F1F440000      nop word [eax+eax+0x0]
00000BA0  B827246000        mov eax,0x602427
00000BA5  55                push ebp
00000BA6  48                dec eax
00000BA7  2D20246000        sub eax,0x602420
00000BAC  48                dec eax
00000BAD  83F80E            cmp eax,byte +0xe
00000BB0  48                dec eax
00000BB1  89E5              mov ebp,esp
00000BB3  7702              ja 0xbb7
00000BB5  5D                pop ebp
00000BB6  C3                ret
00000BB7  B800000000        mov eax,0x0
00000BBC  48                dec eax
00000BBD  85C0              test eax,eax
00000BBF  74F4              jz 0xbb5
00000BC1  5D                pop ebp
00000BC2  BF20246000        mov edi,0x602420
00000BC7  FFE0              jmp eax
00000BC9  0F1F8000000000    nop dword [eax+0x0]
00000BD0  B820246000        mov eax,0x602420
00000BD5  55                push ebp
00000BD6  48                dec eax
00000BD7  2D20246000        sub eax,0x602420
00000BDC  48                dec eax
00000BDD  C1F803            sar eax,byte 0x3
00000BE0  48                dec eax
00000BE1  89E5              mov ebp,esp
00000BE3  48                dec eax
00000BE4  89C2              mov edx,eax
00000BE6  48                dec eax
00000BE7  C1EA3F            shr edx,byte 0x3f
00000BEA  48                dec eax
00000BEB  01D0              add eax,edx
00000BED  48                dec eax
00000BEE  D1F8              sar eax,1
00000BF0  7502              jnz 0xbf4
00000BF2  5D                pop ebp
00000BF3  C3                ret
00000BF4  BA00000000        mov edx,0x0
00000BF9  48                dec eax
00000BFA  85D2              test edx,edx
00000BFC  74F4              jz 0xbf2
00000BFE  5D                pop ebp
00000BFF  48                dec eax
00000C00  89C6              mov esi,eax
00000C02  BF20246000        mov edi,0x602420
00000C07  FFE2              jmp edx
00000C09  0F1F8000000000    nop dword [eax+0x0]
00000C10  803D1918200000    cmp byte [dword 0x201819],0x0
00000C17  7511              jnz 0xc2a
00000C19  55                push ebp
00000C1A  48                dec eax
00000C1B  89E5              mov ebp,esp
00000C1D  E87EFFFFFF        call 0xba0
00000C22  5D                pop ebp
00000C23  C6050618200001    mov byte [dword 0x201806],0x1
00000C2A  F3C3              rep ret
00000C2C  0F1F4000          nop dword [eax+0x0]
00000C30  48                dec eax
00000C31  833DE811200000    cmp dword [dword 0x2011e8],byte +0x0
00000C38  741E              jz 0xc58
00000C3A  B800000000        mov eax,0x0
00000C3F  48                dec eax
00000C40  85C0              test eax,eax
00000C42  7414              jz 0xc58
00000C44  55                push ebp
00000C45  BF201E6000        mov edi,0x601e20
00000C4A  48                dec eax
00000C4B  89E5              mov ebp,esp
00000C4D  FFD0              call eax
00000C4F  5D                pop ebp
00000C50  E97BFFFFFF        jmp 0xbd0
00000C55  0F1F00            nop dword [eax]
00000C58  E973FFFFFF        jmp 0xbd0
00000C5D  55                push ebp
00000C5E  48                dec eax
00000C5F  89E5              mov ebp,esp
00000C61  C605DA18200000    mov byte [dword 0x2018da],0x0
00000C68  0FB605D3182000    movzx eax,byte [dword 0x2018d3]
00000C6F  8805CC182000      mov [dword 0x2018cc],al
00000C75  0FB605C5182000    movzx eax,byte [dword 0x2018c5]
00000C7C  8805BE182000      mov [dword 0x2018be],al
00000C82  0FB605B7182000    movzx eax,byte [dword 0x2018b7]
00000C89  0FB6C0            movzx eax,al
00000C8C  0FB615AD182000    movzx edx,byte [dword 0x2018ad]
00000C93  48                dec eax
00000C94  98                cwde
00000C95  889040246000      mov [eax+0x602440],dl
00000C9B  0FB6059E182000    movzx eax,byte [dword 0x20189e]
00000CA2  83C001            add eax,byte +0x1
00000CA5  880595182000      mov [dword 0x201895],al
00000CAB  0FB6058E182000    movzx eax,byte [dword 0x20188e]
00000CB2  84C0              test al,al
00000CB4  75CC              jnz 0xc82
00000CB6  5D                pop ebp
00000CB7  C3                ret
00000CB8  55                push ebp
00000CB9  48                dec eax
00000CBA  89E5              mov ebp,esp
00000CBC  48                dec eax
00000CBD  897DE8            mov [ebp-0x18],edi
00000CC0  8975E4            mov [ebp-0x1c],esi
00000CC3  48                dec eax
00000CC4  8B45E8            mov eax,[ebp-0x18]
00000CC7  48                dec eax
00000CC8  8945F8            mov [ebp-0x8],eax
00000CCB  E9BF000000        jmp 0xd8f
00000CD0  0FB60569182000    movzx eax,byte [dword 0x201869]
00000CD7  0FB6C0            movzx eax,al
00000CDA  48                dec eax
00000CDB  98                cwde
00000CDC  0FB68040246000    movzx eax,byte [eax+0x602440]
00000CE3  8845F7            mov [ebp-0x9],al
00000CE6  0FB61555182000    movzx edx,byte [dword 0x201855]
00000CED  0FB645F7          movzx eax,byte [ebp-0x9]
00000CF1  01D0              add eax,edx
00000CF3  880549182000      mov [dword 0x201849],al
00000CF9  0FB60540182000    movzx eax,byte [dword 0x201840]
00000D00  0FB6C0            movzx eax,al
00000D03  99                cdq
00000D04  F77DE4            idiv dword [ebp-0x1c]
00000D07  89D0              mov eax,edx
00000D09  48                dec eax
00000D0A  63D0              arpl ax,dx
00000D0C  48                dec eax
00000D0D  8B45F8            mov eax,[ebp-0x8]
00000D10  48                dec eax
00000D11  01D0              add eax,edx
00000D13  0FB610            movzx edx,byte [eax]
00000D16  0FB60525182000    movzx eax,byte [dword 0x201825]
00000D1D  01D0              add eax,edx
00000D1F  88051D182000      mov [dword 0x20181d],al
00000D25  0FB60514182000    movzx eax,byte [dword 0x201814]
00000D2C  0FB6C8            movzx ecx,al
00000D2F  0FB6050C182000    movzx eax,byte [dword 0x20180c]
00000D36  0FB6C0            movzx eax,al
00000D39  48                dec eax
00000D3A  98                cwde
00000D3B  0FB69040246000    movzx edx,byte [eax+0x602440]
00000D42  48                dec eax
00000D43  63C1              arpl cx,ax
00000D45  889040246000      mov [eax+0x602440],dl
00000D4B  0FB605F0172000    movzx eax,byte [dword 0x2017f0]
00000D52  0FB6C0            movzx eax,al
00000D55  48                dec eax
00000D56  98                cwde
00000D57  0FB655F7          movzx edx,byte [ebp-0x9]
00000D5B  889040246000      mov [eax+0x602440],dl
00000D61  0FB605D8172000    movzx eax,byte [dword 0x2017d8]
00000D68  83C001            add eax,byte +0x1
00000D6B  8805CF172000      mov [dword 0x2017cf],al
00000D71  0FB605C8172000    movzx eax,byte [dword 0x2017c8]
00000D78  84C0              test al,al
00000D7A  0F8550FFFFFF      jnz near 0xcd0
00000D80  48                dec eax
00000D81  8145F800010000    add dword [ebp-0x8],0x100
00000D88  816DE400010000    sub dword [ebp-0x1c],0x100
00000D8F  837DE400          cmp dword [ebp-0x1c],byte +0x0
00000D93  0F8F37FFFFFF      jg near 0xcd0
00000D99  5D                pop ebp
00000D9A  C3                ret
00000D9B  55                push ebp
00000D9C  48                dec eax
00000D9D  89E5              mov ebp,esp
00000D9F  48                dec eax
00000DA0  897DE8            mov [ebp-0x18],edi
00000DA3  8975E4            mov [ebp-0x1c],esi
00000DA6  48                dec eax
00000DA7  8B45E8            mov eax,[ebp-0x18]
00000DAA  48                dec eax
00000DAB  8945F8            mov [ebp-0x8],eax
00000DAE  E9B0000000        jmp 0xe63
00000DB3  0FB60586172000    movzx eax,byte [dword 0x201786]
00000DBA  83C001            add eax,byte +0x1
00000DBD  88057D172000      mov [dword 0x20177d],al
00000DC3  0FB60576172000    movzx eax,byte [dword 0x201776]
00000DCA  0FB6C0            movzx eax,al
00000DCD  48                dec eax
00000DCE  98                cwde
00000DCF  0FB68040246000    movzx eax,byte [eax+0x602440]
00000DD6  8845F7            mov [ebp-0x9],al
00000DD9  0FB61561172000    movzx edx,byte [dword 0x201761]
00000DE0  0FB645F7          movzx eax,byte [ebp-0x9]
00000DE4  01D0              add eax,edx
00000DE6  880555172000      mov [dword 0x201755],al
00000DEC  0FB6054D172000    movzx eax,byte [dword 0x20174d]
00000DF3  0FB6C8            movzx ecx,al
00000DF6  0FB60544172000    movzx eax,byte [dword 0x201744]
00000DFD  0FB6C0            movzx eax,al
00000E00  48                dec eax
00000E01  98                cwde
00000E02  0FB69040246000    movzx edx,byte [eax+0x602440]
00000E09  48                dec eax
00000E0A  63C1              arpl cx,ax
00000E0C  889040246000      mov [eax+0x602440],dl
00000E12  0FB60528172000    movzx eax,byte [dword 0x201728]
00000E19  0FB6C0            movzx eax,al
00000E1C  48                dec eax
00000E1D  98                cwde
00000E1E  0FB655F7          movzx edx,byte [ebp-0x9]
00000E22  889040246000      mov [eax+0x602440],dl
00000E28  0FB60511172000    movzx eax,byte [dword 0x201711]
00000E2F  0FB6C0            movzx eax,al
00000E32  48                dec eax
00000E33  98                cwde
00000E34  0FB68040246000    movzx eax,byte [eax+0x602440]
00000E3B  0045F7            add [ebp-0x9],al
00000E3E  48                dec eax
00000E3F  8B45F8            mov eax,[ebp-0x8]
00000E42  0FB610            movzx edx,byte [eax]
00000E45  0FB645F7          movzx eax,byte [ebp-0x9]
00000E49  48                dec eax
00000E4A  98                cwde
00000E4B  0FB68040246000    movzx eax,byte [eax+0x602440]
00000E52  31C2              xor edx,eax
00000E54  48                dec eax
00000E55  8B45F8            mov eax,[ebp-0x8]
00000E58  8810              mov [eax],dl
00000E5A  48                dec eax
00000E5B  8345F801          add dword [ebp-0x8],byte +0x1
00000E5F  836DE401          sub dword [ebp-0x1c],byte +0x1
00000E63  837DE400          cmp dword [ebp-0x1c],byte +0x0
00000E67  0F8F46FFFFFF      jg near 0xdb3
00000E6D  5D                pop ebp
00000E6E  C3                ret
00000E6F  55                push ebp
00000E70  48                dec eax
00000E71  89E5              mov ebp,esp
00000E73  48                dec eax
00000E74  81EC30010000      sub esp,0x130
00000E7A  48                dec eax
00000E7B  89BDD8FEFFFF      mov [ebp-0x128],edi
00000E81  48                dec eax
00000E82  8D95E0FEFFFF      lea edx,[ebp-0x120]
00000E88  48                dec eax
00000E89  8B85D8FEFFFF      mov eax,[ebp-0x128]
00000E8F  48                dec eax
00000E90  89D6              mov esi,edx
00000E92  48                dec eax
00000E93  89C7              mov edi,eax
00000E95  E876080000        call 0x1710
00000E9A  85C0              test eax,eax
00000E9C  790A              jns 0xea8
00000E9E  B8FFFFFFFF        mov eax,0xffffffff
00000EA3  E98C000000        jmp 0xf34
00000EA8  48                dec eax
00000EA9  8D8570FFFFFF      lea eax,[ebp-0x90]
00000EAF  BA90000000        mov edx,0x90
00000EB4  BE00000000        mov esi,0x0
00000EB9  48                dec eax
00000EBA  89C7              mov edi,eax
00000EBC  E87FFBFFFF        call 0xa40
00000EC1  48                dec eax
00000EC2  8B85E8FEFFFF      mov eax,[ebp-0x118]
00000EC8  48                dec eax
00000EC9  898578FFFFFF      mov [ebp-0x88],eax
00000ECF  48                dec eax
00000ED0  8B85E0FEFFFF      mov eax,[ebp-0x120]
00000ED6  48                dec eax
00000ED7  898570FFFFFF      mov [ebp-0x90],eax
00000EDD  48                dec eax
00000EDE  8B8508FFFFFF      mov eax,[ebp-0xf8]
00000EE4  48                dec eax
00000EE5  894598            mov [ebp-0x68],eax
00000EE8  8B85FCFEFFFF      mov eax,[ebp-0x104]
00000EEE  89458C            mov [ebp-0x74],eax
00000EF1  8B8500FFFFFF      mov eax,[ebp-0x100]
00000EF7  894590            mov [ebp-0x70],eax
00000EFA  48                dec eax
00000EFB  8B8510FFFFFF      mov eax,[ebp-0xf0]
00000F01  48                dec eax
00000F02  8945A0            mov [ebp-0x60],eax
00000F05  48                dec eax
00000F06  8B8538FFFFFF      mov eax,[ebp-0xc8]
00000F0C  48                dec eax
00000F0D  8945C8            mov [ebp-0x38],eax
00000F10  48                dec eax
00000F11  8B8548FFFFFF      mov eax,[ebp-0xb8]
00000F17  48                dec eax
00000F18  8945D8            mov [ebp-0x28],eax
00000F1B  48                dec eax
00000F1C  8D8570FFFFFF      lea eax,[ebp-0x90]
00000F22  BE90000000        mov esi,0x90
00000F27  48                dec eax
00000F28  89C7              mov edi,eax
00000F2A  E889FDFFFF        call 0xcb8
00000F2F  B800000000        mov eax,0x0
00000F34  C9                leave
00000F35  C3                ret
00000F36  55                push ebp
00000F37  48                dec eax
00000F38  89E5              mov ebp,esp
00000F3A  48                dec eax
00000F3B  897DF8            mov [ebp-0x8],edi
00000F3E  48                dec eax
00000F3F  8975F0            mov [ebp-0x10],esi
00000F42  EB05              jmp short 0xf49
00000F44  48                dec eax
00000F45  8345F808          add dword [ebp-0x8],byte +0x8
00000F49  48                dec eax
00000F4A  837DF800          cmp dword [ebp-0x8],byte +0x0
00000F4E  7419              jz 0xf69
00000F50  48                dec eax
00000F51  8B45F8            mov eax,[ebp-0x8]
00000F54  48                dec eax
00000F55  8B00              mov eax,[eax]
00000F57  48                dec eax
00000F58  85C0              test eax,eax
00000F5A  740D              jz 0xf69
00000F5C  48                dec eax
00000F5D  8B45F8            mov eax,[ebp-0x8]
00000F60  48                dec eax
00000F61  8B00              mov eax,[eax]
00000F63  48                dec eax
00000F64  3B45F0            cmp eax,[ebp-0x10]
00000F67  75DB              jnz 0xf44
00000F69  EB14              jmp short 0xf7f
00000F6B  48                dec eax
00000F6C  8B45F8            mov eax,[ebp-0x8]
00000F6F  48                dec eax
00000F70  8B5008            mov edx,[eax+0x8]
00000F73  48                dec eax
00000F74  8B45F8            mov eax,[ebp-0x8]
00000F77  48                dec eax
00000F78  8910              mov [eax],edx
00000F7A  48                dec eax
00000F7B  8345F808          add dword [ebp-0x8],byte +0x8
00000F7F  48                dec eax
00000F80  837DF800          cmp dword [ebp-0x8],byte +0x0
00000F84  740C              jz 0xf92
00000F86  48                dec eax
00000F87  8B45F8            mov eax,[ebp-0x8]
00000F8A  48                dec eax
00000F8B  8B00              mov eax,[eax]
00000F8D  48                dec eax
00000F8E  85C0              test eax,eax
00000F90  75D9              jnz 0xf6b
00000F92  5D                pop ebp
00000F93  C3                ret
00000F94  55                push ebp
00000F95  48                dec eax
00000F96  89E5              mov ebp,esp
00000F98  53                push ebx
00000F99  48                dec eax
00000F9A  81EC58020000      sub esp,0x258
00000FA0  89BDACFDFFFF      mov [ebp-0x254],edi
00000FA6  6448              fs dec eax
00000FA8  8B042528000000    mov eax,[0x28]
00000FAF  48                dec eax
00000FB0  8945E8            mov [ebp-0x18],eax
00000FB3  31C0              xor eax,eax
00000FB5  E856FAFFFF        call 0xa10
00000FBA  48                dec eax
00000FBB  98                cwde
00000FBC  48                dec eax
00000FBD  8985C8FDFFFF      mov [ebp-0x238],eax
00000FC3  E895FCFFFF        call 0xc5d
00000FC8  BA7B114000        mov edx,0x40117b
00000FCD  B8940F4000        mov eax,0x400f94
00000FD2  48                dec eax
00000FD3  29C2              sub edx,eax
00000FD5  48                dec eax
00000FD6  89D0              mov eax,edx
00000FD8  89C6              mov esi,eax
00000FDA  BF940F4000        mov edi,0x400f94
00000FDF  E8D4FCFFFF        call 0xcb8
00000FE4  BE1C030000        mov esi,0x31c
00000FE9  BF00216000        mov edi,0x602100
00000FEE  E8C5FCFFFF        call 0xcb8
00000FF3  48                dec eax
00000FF4  8D85C8FDFFFF      lea eax,[ebp-0x238]
00000FFA  BE08000000        mov esi,0x8
00000FFF  48                dec eax
00001000  89C7              mov edi,eax
00001002  E8B1FCFFFF        call 0xcb8
00001007  48                dec eax
00001008  8D85C8FDFFFF      lea eax,[ebp-0x238]
0000100E  BE08000000        mov esi,0x8
00001013  48                dec eax
00001014  89C7              mov edi,eax
00001016  E880FDFFFF        call 0xd9b
0000101B  48                dec eax
0000101C  8B95C8FDFFFF      mov edx,[ebp-0x238]
00001022  48                dec eax
00001023  8D85E0FDFFFF      lea eax,[ebp-0x220]
00001029  BE38174000        mov esi,0x401738
0000102E  48                dec eax
0000102F  89C7              mov edi,eax
00001031  B800000000        mov eax,0x0
00001036  E8E5FAFFFF        call 0xb20
0000103B  48                dec eax
0000103C  8D85E0FDFFFF      lea eax,[ebp-0x220]
00001042  48                dec eax
00001043  89C7              mov edi,eax
00001045  E8A6F9FFFF        call 0x9f0
0000104A  48                dec eax
0000104B  8985D8FDFFFF      mov [ebp-0x228],eax
00001051  48                dec eax
00001052  8D85E0FDFFFF      lea eax,[ebp-0x220]
00001058  48                dec eax
00001059  89C7              mov edi,eax
0000105B  E8C0F9FFFF        call 0xa20
00001060  8985C0FDFFFF      mov [ebp-0x240],eax
00001066  48                dec eax
00001067  83BDD8FDFFFF00    cmp dword [ebp-0x228],byte +0x0
0000106E  7556              jnz 0x10c6
00001070  48                dec eax
00001071  8B85C8FDFFFF      mov eax,[ebp-0x238]
00001077  48                dec eax
00001078  8D8DE0FDFFFF      lea ecx,[ebp-0x220]
0000107E  8B95C0FDFFFF      mov edx,[ebp-0x240]
00001084  48                dec eax
00001085  63D2              arpl dx,dx
00001087  48                dec eax
00001088  8D3C11            lea edi,[ecx+edx]
0000108B  8B95ACFDFFFF      mov edx,[ebp-0x254]
00001091  89D1              mov ecx,edx
00001093  48                dec eax
00001094  89C2              mov edx,eax
00001096  BE3D174000        mov esi,0x40173d
0000109B  B800000000        mov eax,0x0
000010A0  E87BFAFFFF        call 0xb20
000010A5  48                dec eax
000010A6  8D85E0FDFFFF      lea eax,[ebp-0x220]
000010AC  48                dec eax
000010AD  89C7              mov edi,eax
000010AF  E89CFAFFFF        call 0xb50
000010B4  48                dec eax
000010B5  89C7              mov edi,eax
000010B7  E8C4F9FFFF        call 0xa80
000010BC  B800000000        mov eax,0x0
000010C1  E997000000        jmp 0x115d
000010C6  48                dec eax
000010C7  8DB5E0FDFFFF      lea esi,[ebp-0x220]
000010CD  48                dec eax
000010CE  8D8DBCFDFFFF      lea ecx,[ebp-0x244]
000010D4  48                dec eax
000010D5  8D95D0FDFFFF      lea edx,[ebp-0x230]
000010DB  48                dec eax
000010DC  8B85D8FDFFFF      mov eax,[ebp-0x228]
000010E2  49                dec ecx
000010E3  89F0              mov eax,esi
000010E5  BE45174000        mov esi,0x401745
000010EA  48                dec eax
000010EB  89C7              mov edi,eax
000010ED  B800000000        mov eax,0x0
000010F2  E809FAFFFF        call 0xb00
000010F7  8985C4FDFFFF      mov [ebp-0x23c],eax
000010FD  83BDC4FDFFFF02    cmp dword [ebp-0x23c],byte +0x2
00001104  7552              jnz 0x1158
00001106  48                dec eax
00001107  8B95D0FDFFFF      mov edx,[ebp-0x230]
0000110D  48                dec eax
0000110E  8B85C8FDFFFF      mov eax,[ebp-0x238]
00001114  48                dec eax
00001115  39C2              cmp edx,eax
00001117  753F              jnz 0x1158
00001119  8B85C0FDFFFF      mov eax,[ebp-0x240]
0000111F  F7D8              neg eax
00001121  48                dec eax
00001122  98                cwde
00001123  48                dec eax
00001124  8D50FF            lea edx,[eax-0x1]
00001127  48                dec eax
00001128  8B85D8FDFFFF      mov eax,[ebp-0x228]
0000112E  48                dec eax
0000112F  01C2              add edx,eax
00001131  48                dec eax
00001132  8B05E8122000      mov eax,[dword 0x2012e8]
00001138  48                dec eax
00001139  89D6              mov esi,edx
0000113B  48                dec eax
0000113C  89C7              mov edi,eax
0000113E  E8F3FDFFFF        call 0xf36
00001143  8B85BCFDFFFF      mov eax,[ebp-0x244]
00001149  8B95ACFDFFFF      mov edx,[ebp-0x254]
0000114F  29C2              sub edx,eax
00001151  89D0              mov eax,edx
00001153  83C001            add eax,byte +0x1
00001156  EB05              jmp short 0x115d
00001158  B8FFFFFFFF        mov eax,0xffffffff
0000115D  48                dec eax
0000115E  8B5DE8            mov ebx,[ebp-0x18]
00001161  6448              fs dec eax
00001163  331C2528000000    xor ebx,[0x28]
0000116A  7405              jz 0x1171
0000116C  E8BFF8FFFF        call 0xa30
00001171  48                dec eax
00001172  81C458020000      add esp,0x258
00001178  5B                pop ebx
00001179  5D                pop ebp
0000117A  C3                ret
0000117B  55                push ebp
0000117C  48                dec eax
0000117D  89E5              mov ebp,esp
0000117F  5D                pop ebp
00001180  C3                ret
00001181  55                push ebp
00001182  48                dec eax
00001183  89E5              mov ebp,esp
00001185  53                push ebx
00001186  48                dec eax
00001187  83EC48            sub esp,byte +0x48
0000118A  897DBC            mov [ebp-0x44],edi
0000118D  48                dec eax
0000118E  8975B0            mov [ebp-0x50],esi
00001191  48                dec eax
00001192  8B45B0            mov eax,[ebp-0x50]
00001195  48                dec eax
00001196  8B00              mov eax,[eax]
00001198  48                dec eax
00001199  8945E0            mov [ebp-0x20],eax
0000119C  48                dec eax
0000119D  837DE000          cmp dword [ebp-0x20],byte +0x0
000011A1  750E              jnz 0x11b1
000011A3  BF4E174000        mov edi,0x40174e
000011A8  E843F8FFFF        call 0x9f0
000011AD  48                dec eax
000011AE  8945E0            mov [ebp-0x20],eax
000011B1  48                dec eax
000011B2  837DE000          cmp dword [ebp-0x20],byte +0x0
000011B6  7528              jnz 0x11e0
000011B8  48                dec eax
000011B9  8B0569122000      mov eax,[dword 0x201269]
000011BF  48                dec eax
000011C0  89C1              mov ecx,eax
000011C2  BA20000000        mov edx,0x20
000011C7  BE01000000        mov esi,0x1
000011CC  BF50174000        mov edi,0x401750
000011D1  E86AF9FFFF        call 0xb40
000011D6  BF01000000        mov edi,0x1
000011DB  E850F9FFFF        call 0xb30
000011E0  8B45BC            mov eax,[ebp-0x44]
000011E3  89C7              mov edi,eax
000011E5  E8AAFDFFFF        call 0xf94
000011EA  8945D4            mov [ebp-0x2c],eax
000011ED  E86BFAFFFF        call 0xc5d
000011F2  BE00010000        mov esi,0x100
000011F7  BFDF226000        mov edi,0x6022df
000011FC  E8B7FAFFFF        call 0xcb8
00001201  BE41000000        mov esi,0x41
00001206  BF7A226000        mov edi,0x60227a
0000120B  E88BFBFFFF        call 0xd9b
00001210  BE01000000        mov esi,0x1
00001215  BFF6236000        mov edi,0x6023f6
0000121A  E87CFBFFFF        call 0xd9b
0000121F  0FB605D0112000    movzx eax,byte [dword 0x2011d0]
00001226  84C0              test al,al
00001228  7426              jz 0x1250
0000122A  BFF6236000        mov edi,0x6023f6
0000122F  E85CF8FFFF        call 0xa90
00001234  48                dec eax
00001235  89C3              mov ebx,eax
00001237  BF00000000        mov edi,0x0
0000123C  E88FF8FFFF        call 0xad0
00001241  48                dec eax
00001242  39C3              cmp ebx,eax
00001244  7D0A              jnl 0x1250
00001246  B87A226000        mov eax,0x60227a
0000124B  E97D030000        jmp 0x15cd
00001250  BE08000000        mov esi,0x8
00001255  BF11246000        mov edi,0x602411
0000125A  E83CFBFFFF        call 0xd9b
0000125F  BE03000000        mov esi,0x3
00001264  BF55216000        mov edi,0x602155
00001269  E82DFBFFFF        call 0xd9b
0000126E  BE0F000000        mov esi,0xf
00001273  BF45216000        mov edi,0x602145
00001278  E81EFBFFFF        call 0xd9b
0000127D  BE01000000        mov esi,0x1
00001282  BF1A246000        mov edi,0x60241a
00001287  E80FFBFFFF        call 0xd9b
0000128C  BE16000000        mov esi,0x16
00001291  BFF8236000        mov edi,0x6023f8
00001296  E800FBFFFF        call 0xd9b
0000129B  BE16000000        mov esi,0x16
000012A0  BFF8236000        mov edi,0x6023f8
000012A5  E80EFAFFFF        call 0xcb8
000012AA  BE16000000        mov esi,0x16
000012AF  BF00216000        mov edi,0x602100
000012B4  E8E2FAFFFF        call 0xd9b
000012B9  BA16000000        mov edx,0x16
000012BE  BE00216000        mov esi,0x602100
000012C3  BFF8236000        mov edi,0x6023f8
000012C8  E893F7FFFF        call 0xa60
000012CD  85C0              test eax,eax
000012CF  740A              jz 0x12db
000012D1  B8F8236000        mov eax,0x6023f8
000012D6  E9F2020000        jmp 0x15cd
000012DB  BE13000000        mov esi,0x13
000012E0  BF31216000        mov edi,0x602131
000012E5  E8B1FAFFFF        call 0xd9b
000012EA  837DD400          cmp dword [ebp-0x2c],byte +0x0
000012EE  790A              jns 0x12fa
000012F0  B831216000        mov eax,0x602131
000012F5  E9D3020000        jmp 0x15cd
000012FA  8B45BC            mov eax,[ebp-0x44]
000012FD  83C00A            add eax,byte +0xa
00001300  48                dec eax
00001301  98                cwde
00001302  BE08000000        mov esi,0x8
00001307  48                dec eax
00001308  89C7              mov edi,eax
0000130A  E861F7FFFF        call 0xa70
0000130F  48                dec eax
00001310  8945E8            mov [ebp-0x18],eax
00001313  48                dec eax
00001314  837DE800          cmp dword [ebp-0x18],byte +0x0
00001318  750A              jnz 0x1324
0000131A  B800000000        mov eax,0x0
0000131F  E9A9020000        jmp 0x15cd
00001324  837DD400          cmp dword [ebp-0x2c],byte +0x0
00001328  0F84F2000000      jz near 0x1420
0000132E  BE01000000        mov esi,0x1
00001333  BF19216000        mov edi,0x602119
00001338  E85EFAFFFF        call 0xd9b
0000133D  0FB605D50D2000    movzx eax,byte [dword 0x200dd5]
00001344  84C0              test al,al
00001346  7518              jnz 0x1360
00001348  BF11246000        mov edi,0x602411
0000134D  E81DFBFFFF        call 0xe6f
00001352  85C0              test eax,eax
00001354  740A              jz 0x1360
00001356  B811246000        mov eax,0x602411
0000135B  E96D020000        jmp 0x15cd
00001360  BE01000000        mov esi,0x1
00001365  BF54216000        mov edi,0x602154
0000136A  E82CFAFFFF        call 0xd9b
0000136F  BECE000000        mov esi,0xce
00001374  BF80216000        mov edi,0x602180
00001379  E81DFAFFFF        call 0xd9b
0000137E  BE13000000        mov esi,0x13
00001383  BF5A226000        mov edi,0x60225a
00001388  E80EFAFFFF        call 0xd9b
0000138D  BE13000000        mov esi,0x13
00001392  BF5A226000        mov edi,0x60225a
00001397  E81CF9FFFF        call 0xcb8
0000139C  BE13000000        mov esi,0x13
000013A1  BF1A216000        mov edi,0x60211a
000013A6  E8F0F9FFFF        call 0xd9b
000013AB  BA13000000        mov edx,0x13
000013B0  BE1A216000        mov esi,0x60211a
000013B5  BF5A226000        mov edi,0x60225a
000013BA  E8A1F6FFFF        call 0xa60
000013BF  85C0              test eax,eax
000013C1  740A              jz 0x13cd
000013C3  B85A226000        mov eax,0x60225a
000013C8  E900020000        jmp 0x15cd
000013CD  BFCE100000        mov edi,0x10ce
000013D2  E819F7FFFF        call 0xaf0
000013D7  48                dec eax
000013D8  8945D8            mov [ebp-0x28],eax
000013DB  48                dec eax
000013DC  837DD800          cmp dword [ebp-0x28],byte +0x0
000013E0  750A              jnz 0x13ec
000013E2  B800000000        mov eax,0x0
000013E7  E9E1010000        jmp 0x15cd
000013EC  48                dec eax
000013ED  8B45D8            mov eax,[ebp-0x28]
000013F0  BA00100000        mov edx,0x1000
000013F5  BE20000000        mov esi,0x20
000013FA  48                dec eax
000013FB  89C7              mov edi,eax
000013FD  E83EF6FFFF        call 0xa40
00001402  48                dec eax
00001403  8B45D8            mov eax,[ebp-0x28]
00001406  48                dec eax
00001407  0500100000        add eax,0x1000
0000140C  BACE000000        mov edx,0xce
00001411  BE80216000        mov esi,0x602180
00001416  48                dec eax
00001417  89C7              mov edi,eax
00001419  E8A2F6FFFF        call 0xac0
0000141E  EB4E              jmp short 0x146e
00001420  0FB6051E0D2000    movzx eax,byte [dword 0x200d1e]
00001427  84C0              test al,al
00001429  743B              jz 0x1466
0000142B  BF00020000        mov edi,0x200
00001430  E8BBF6FFFF        call 0xaf0
00001435  48                dec eax
00001436  8945D8            mov [ebp-0x28],eax
00001439  48                dec eax
0000143A  837DD800          cmp dword [ebp-0x28],byte +0x0
0000143E  750A              jnz 0x144a
00001440  B800000000        mov eax,0x0
00001445  E983010000        jmp 0x15cd
0000144A  48                dec eax
0000144B  8B55E0            mov edx,[ebp-0x20]
0000144E  48                dec eax
0000144F  8B45D8            mov eax,[ebp-0x28]
00001452  BE45216000        mov esi,0x602145
00001457  48                dec eax
00001458  89C7              mov edi,eax
0000145A  B800000000        mov eax,0x0
0000145F  E8BCF6FFFF        call 0xb20
00001464  EB08              jmp short 0x146e
00001466  48                dec eax
00001467  8B45E0            mov eax,[ebp-0x20]
0000146A  48                dec eax
0000146B  8945D8            mov [ebp-0x28],eax
0000146E  C745D000000000    mov dword [ebp-0x30],0x0
00001475  8B45D0            mov eax,[ebp-0x30]
00001478  8D5001            lea edx,[eax+0x1]
0000147B  8955D0            mov [ebp-0x30],edx
0000147E  48                dec eax
0000147F  98                cwde
00001480  48                dec eax
00001481  8D14C500000000    lea edx,[eax*8+0x0]
00001488  48                dec eax
00001489  8B45E8            mov eax,[ebp-0x18]
0000148C  48                dec eax
0000148D  01C2              add edx,eax
0000148F  48                dec eax
00001490  8B45B0            mov eax,[ebp-0x50]
00001493  48                dec eax
00001494  8B00              mov eax,[eax]
00001496  48                dec eax
00001497  8902              mov [edx],eax
00001499  837DD400          cmp dword [ebp-0x2c],byte +0x0
0000149D  742C              jz 0x14cb
0000149F  0FB605AE0C2000    movzx eax,byte [dword 0x200cae]
000014A6  84C0              test al,al
000014A8  7421              jz 0x14cb
000014AA  8B45D0            mov eax,[ebp-0x30]
000014AD  8D5001            lea edx,[eax+0x1]
000014B0  8955D0            mov [ebp-0x30],edx
000014B3  48                dec eax
000014B4  98                cwde
000014B5  48                dec eax
000014B6  8D14C500000000    lea edx,[eax*8+0x0]
000014BD  48                dec eax
000014BE  8B45E8            mov eax,[ebp-0x18]
000014C1  48                dec eax
000014C2  01D0              add eax,edx
000014C4  48                dec eax
000014C5  C70054216000      mov dword [eax],0x602154
000014CB  0FB605830C2000    movzx eax,byte [dword 0x200c83]
000014D2  84C0              test al,al
000014D4  7421              jz 0x14f7
000014D6  8B45D0            mov eax,[ebp-0x30]
000014D9  8D5001            lea edx,[eax+0x1]
000014DC  8955D0            mov [ebp-0x30],edx
000014DF  48                dec eax
000014E0  98                cwde
000014E1  48                dec eax
000014E2  8D14C500000000    lea edx,[eax*8+0x0]
000014E9  48                dec eax
000014EA  8B45E8            mov eax,[ebp-0x18]
000014ED  48                dec eax
000014EE  01D0              add eax,edx
000014F0  48                dec eax
000014F1  C70055216000      mov dword [eax],0x602155
000014F7  8B45D0            mov eax,[ebp-0x30]
000014FA  8D5001            lea edx,[eax+0x1]
000014FD  8955D0            mov [ebp-0x30],edx
00001500  48                dec eax
00001501  98                cwde
00001502  48                dec eax
00001503  8D14C500000000    lea edx,[eax*8+0x0]
0000150A  48                dec eax
0000150B  8B45E8            mov eax,[ebp-0x18]
0000150E  48                dec eax
0000150F  01C2              add edx,eax
00001511  48                dec eax
00001512  8B45D8            mov eax,[ebp-0x28]
00001515  48                dec eax
00001516  8902              mov [edx],eax
00001518  0FB605FB0E2000    movzx eax,byte [dword 0x200efb]
0000151F  84C0              test al,al
00001521  7421              jz 0x1544
00001523  8B45D0            mov eax,[ebp-0x30]
00001526  8D5001            lea edx,[eax+0x1]
00001529  8955D0            mov [ebp-0x30],edx
0000152C  48                dec eax
0000152D  98                cwde
0000152E  48                dec eax
0000152F  8D14C500000000    lea edx,[eax*8+0x0]
00001536  48                dec eax
00001537  8B45E8            mov eax,[ebp-0x18]
0000153A  48                dec eax
0000153B  01D0              add eax,edx
0000153D  48                dec eax
0000153E  C7001A246000      mov dword [eax],0x60241a
00001544  837DD401          cmp dword [ebp-0x2c],byte +0x1
00001548  7E05              jng 0x154f
0000154A  8B45D4            mov eax,[ebp-0x2c]
0000154D  EB05              jmp short 0x1554
0000154F  B800000000        mov eax,0x0
00001554  8945CC            mov [ebp-0x34],eax
00001557  EB3B              jmp short 0x1594
00001559  8B45D0            mov eax,[ebp-0x30]
0000155C  8D5001            lea edx,[eax+0x1]
0000155F  8955D0            mov [ebp-0x30],edx
00001562  48                dec eax
00001563  98                cwde
00001564  48                dec eax
00001565  8D14C500000000    lea edx,[eax*8+0x0]
0000156C  48                dec eax
0000156D  8B45E8            mov eax,[ebp-0x18]
00001570  48                dec eax
00001571  8D0C02            lea ecx,[edx+eax]
00001574  8B45CC            mov eax,[ebp-0x34]
00001577  8D5001            lea edx,[eax+0x1]
0000157A  8955CC            mov [ebp-0x34],edx
0000157D  48                dec eax
0000157E  98                cwde
0000157F  48                dec eax
00001580  8D14C500000000    lea edx,[eax*8+0x0]
00001587  48                dec eax
00001588  8B45B0            mov eax,[ebp-0x50]
0000158B  48                dec eax
0000158C  01D0              add eax,edx
0000158E  48                dec eax
0000158F  8B00              mov eax,[eax]
00001591  48                dec eax
00001592  8901              mov [ecx],eax
00001594  8B45CC            mov eax,[ebp-0x34]
00001597  3B45BC            cmp eax,[ebp-0x44]
0000159A  7CBD              jl 0x1559
0000159C  8B45D0            mov eax,[ebp-0x30]
0000159F  48                dec eax
000015A0  98                cwde
000015A1  48                dec eax
000015A2  8D14C500000000    lea edx,[eax*8+0x0]
000015A9  48                dec eax
000015AA  8B45E8            mov eax,[ebp-0x18]
000015AD  48                dec eax
000015AE  01D0              add eax,edx
000015B0  48                dec eax
000015B1  C70000000000      mov dword [eax],0x0
000015B7  48                dec eax
000015B8  8B45E8            mov eax,[ebp-0x18]
000015BB  48                dec eax
000015BC  89C6              mov esi,eax
000015BE  BF11246000        mov edi,0x602411
000015C3  E848F5FFFF        call 0xb10
000015C8  B811246000        mov eax,0x602411
000015CD  48                dec eax
000015CE  83C448            add esp,byte +0x48
000015D1  5B                pop ebx
000015D2  5D                pop ebp
000015D3  C3                ret
000015D4  55                push ebp
000015D5  48                dec eax
000015D6  89E5              mov ebp,esp
000015D8  41                inc ecx
000015D9  54                push esp
000015DA  53                push ebx
000015DB  48                dec eax
000015DC  83EC10            sub esp,byte +0x10
000015DF  897DEC            mov [ebp-0x14],edi
000015E2  48                dec eax
000015E3  8975E0            mov [ebp-0x20],esi
000015E6  48                dec eax
000015E7  8B45E0            mov eax,[ebp-0x20]
000015EA  48                dec eax
000015EB  8D5808            lea ebx,[eax+0x8]
000015EE  48                dec eax
000015EF  8B55E0            mov edx,[ebp-0x20]
000015F2  8B45EC            mov eax,[ebp-0x14]
000015F5  48                dec eax
000015F6  89D6              mov esi,edx
000015F8  89C7              mov edi,eax
000015FA  E882FBFFFF        call 0x1181
000015FF  48                dec eax
00001600  8903              mov [ebx],eax
00001602  48                dec eax
00001603  8B45E0            mov eax,[ebp-0x20]
00001606  48                dec eax
00001607  83C008            add eax,byte +0x8
0000160A  48                dec eax
0000160B  8B00              mov eax,[eax]
0000160D  48                dec eax
0000160E  85C0              test eax,eax
00001610  740A              jz 0x161c
00001612  48                dec eax
00001613  8B45E0            mov eax,[ebp-0x20]
00001616  4C                dec esp
00001617  8B6008            mov esp,[eax+0x8]
0000161A  EB06              jmp short 0x1622
0000161C  41                inc ecx
0000161D  BC71174000        mov esp,0x401771
00001622  E8D9F3FFFF        call 0xa00
00001627  8B00              mov eax,[eax]
00001629  85C0              test eax,eax
0000162B  7413              jz 0x1640
0000162D  E8CEF3FFFF        call 0xa00
00001632  8B00              mov eax,[eax]
00001634  89C7              mov edi,eax
00001636  E825F5FFFF        call 0xb60
0000163B  48                dec eax
0000163C  89C3              mov ebx,eax
0000163E  EB05              jmp short 0x1645
00001640  BB78174000        mov ebx,0x401778
00001645  E8B6F3FFFF        call 0xa00
0000164A  8B00              mov eax,[eax]
0000164C  85C0              test eax,eax
0000164E  7407              jz 0x1657
00001650  B879174000        mov eax,0x401779
00001655  EB05              jmp short 0x165c
00001657  B878174000        mov eax,0x401778
0000165C  48                dec eax
0000165D  8B55E0            mov edx,[ebp-0x20]
00001660  48                dec eax
00001661  8B12              mov edx,[edx]
00001663  48                dec eax
00001664  8B3DBE0D2000      mov edi,[dword 0x200dbe]
0000166A  4D                dec ebp
0000166B  89E1              mov ecx,esp
0000166D  49                dec ecx
0000166E  89D8              mov eax,ebx
00001670  48                dec eax
00001671  89C1              mov ecx,eax
00001673  BE7C174000        mov esi,0x40177c
00001678  B800000000        mov eax,0x0
0000167D  E81EF4FFFF        call 0xaa0
00001682  B801000000        mov eax,0x1
00001687  48                dec eax
00001688  83C410            add esp,byte +0x10
0000168B  5B                pop ebx
0000168C  41                inc ecx
0000168D  5C                pop esp
0000168E  5D                pop ebp
0000168F  C3                ret
00001690  41                inc ecx
00001691  57                push edi
00001692  41                inc ecx
00001693  89FF              mov edi,edi
00001695  41                inc ecx
00001696  56                push esi
00001697  49                dec ecx
00001698  89F6              mov esi,esi
0000169A  41                inc ecx
0000169B  55                push ebp
0000169C  49                dec ecx
0000169D  89D5              mov ebp,edx
0000169F  41                inc ecx
000016A0  54                push esp
000016A1  4C                dec esp
000016A2  8D2568072000      lea esp,[dword 0x200768]
000016A8  55                push ebp
000016A9  48                dec eax
000016AA  8D2D68072000      lea ebp,[dword 0x200768]
000016B0  53                push ebx
000016B1  4C                dec esp
000016B2  29E5              sub ebp,esp
000016B4  31DB              xor ebx,ebx
000016B6  48                dec eax
000016B7  C1FD03            sar ebp,byte 0x3
000016BA  48                dec eax
000016BB  83EC08            sub esp,byte +0x8
000016BE  E8FDF2FFFF        call 0x9c0
000016C3  48                dec eax
000016C4  85ED              test ebp,ebp
000016C6  741E              jz 0x16e6
000016C8  0F1F840000000000  nop dword [eax+eax+0x0]
000016D0  4C                dec esp
000016D1  89EA              mov edx,ebp
000016D3  4C                dec esp
000016D4  89F6              mov esi,esi
000016D6  44                inc esp
000016D7  89FF              mov edi,edi
000016D9  41                inc ecx
000016DA  FF14DC            call [esp+ebx*8]
000016DD  48                dec eax
000016DE  83C301            add ebx,byte +0x1
000016E1  48                dec eax
000016E2  39EB              cmp ebx,ebp
000016E4  75EA              jnz 0x16d0
000016E6  48                dec eax
000016E7  83C408            add esp,byte +0x8
000016EA  5B                pop ebx
000016EB  5D                pop ebp
000016EC  41                inc ecx
000016ED  5C                pop esp
000016EE  41                inc ecx
000016EF  5D                pop ebp
000016F0  41                inc ecx
000016F1  5E                pop esi
000016F2  41                inc ecx
000016F3  5F                pop edi
000016F4  C3                ret
000016F5  66662E0F1F840000  nop word [cs:eax+eax+0x0]
         -000000
00001700  F3C3              rep ret
00001702  662E0F1F84000000  nop word [cs:eax+eax+0x0]
         -0000
0000170C  0F1F4000          nop dword [eax+0x0]
00001710  48                dec eax
00001711  89F2              mov edx,esi
00001713  48                dec eax
00001714  89FE              mov esi,edi
00001716  BF01000000        mov edi,0x1
0000171B  E9C0F3FFFF        jmp 0xae0
00001720  48                dec eax
00001721  83EC08            sub esp,byte +0x8
00001724  48                dec eax
00001725  83C408            add esp,byte +0x8
00001728  C3                ret
00001729  0000              add [eax],al
0000172B  0000              add [eax],al
0000172D  0000              add [eax],al
0000172F  0001              add [ecx],al
00001731  0002              add [edx],al
00001733  0000              add [eax],al
00001735  0000              add [eax],al
00001737  007825            add [eax+0x25],bh
0000173A  6C                insb
0000173B  7800              js 0x173d
0000173D  3D256C7520        cmp eax,0x20756c25
00001742  256400256C        and eax,0x6c250064
00001747  7520              jnz 0x1769
00001749  2564256300        and eax,0x632564
0000174E  5F                pop edi
0000174F  00453A            add [ebp+0x3a],al
00001752  206E65            and [esi+0x65],ch
00001755  6974686572206172  imul esi,[eax+ebp*2+0x65],dword 0x72612072
0000175D  67765B            jna 0x17bb
00001760  305D20            xor [ebp+0x20],bl
00001763  6E                outsb
00001764  6F                outsd
00001765  7220              jc 0x1787
00001767  245F              and al,0x5f
00001769  20776F            and [edi+0x6f],dh
0000176C  726B              jc 0x17d9
0000176E  732E              jnc 0x179e
00001770  003C6E            add [esi+ebp*2],bh
00001773  756C              jnz 0x17e1
00001775  6C                insb
00001776  3E0000            add [ds:eax],al
00001779  3A20              cmp ah,[eax]
0000177B  002573257325      add [dword 0x25732573],ah
00001781  733A              jnc 0x17bd
00001783  2025730A0001      and [dword 0x1000a73],ah
00001789  1B03              sbb eax,[ebx]
0000178B  3B7C0000          cmp edi,[eax+eax+0x0]
0000178F  000E              add [esi],cl
00001791  0000              add [eax],al
00001793  0058F2            add [eax-0xe],bl
00001796  FF                db 0xff
00001797  FFC8              dec eax
00001799  0000              add [eax],al
0000179B  00E8              add al,ch
0000179D  F3                rep
0000179E  FF                db 0xff
0000179F  FF98000000D5      call far [eax-0x2b000000]
000017A5  F4                hlt
000017A6  FF                db 0xff
000017A7  FFF0              push eax
000017A9  0000              add [eax],al
000017AB  0030              add [eax],dh
000017AD  F5                cmc
000017AE  FF                db 0xff
000017AF  FF10              call [eax]
000017B1  0100              add [eax],eax
000017B3  0013              add [ebx],dl
000017B5  F6FF              idiv bh
000017B7  FF30              push dword [eax]
000017B9  0100              add [eax],eax
000017BB  00E7              add bh,ah
000017BD  F6FF              idiv bh
000017BF  FF5001            call [eax+0x1]
000017C2  0000              add [eax],al
000017C4  AE                scasb
000017C5  F7FF              idiv edi
000017C7  FF7001            push dword [eax+0x1]
000017CA  0000              add [eax],al
000017CC  0CF8              or al,0xf8
000017CE  FF                db 0xff
000017CF  FF90010000F3      call [eax-0xcffffff]
000017D5  F9                stc
000017D6  FF                db 0xff
000017D7  FF                db 0xff
000017D8  B8010000F9        mov eax,0xf9000001
000017DD  F9                stc
000017DE  FF                db 0xff
000017DF  FF                db 0xff
000017E0  D801              fadd dword [ecx]
000017E2  0000              add [eax],al
000017E4  4C                dec esp
000017E5  FE                db 0xfe
000017E6  FF                db 0xff
000017E7  FF00              inc dword [eax]
000017E9  0200              add al,[eax]
000017EB  0008              add [eax],cl
000017ED  FF                db 0xff
000017EE  FF                db 0xff
000017EF  FF28              jmp far [eax]
000017F1  0200              add al,[eax]
000017F3  0078FF            add [eax-0x1],bh
000017F6  FF                db 0xff
000017F7  FF7002            push dword [eax+0x2]
000017FA  0000              add [eax],al
000017FC  88FF              mov bh,bh
000017FE  FF                db 0xff
000017FF  FF8802000000      dec dword [eax+0x2]
00001805  0000              add [eax],al
00001807  001400            add [eax+eax],dl
0000180A  0000              add [eax],al
0000180C  0000              add [eax],al
0000180E  0000              add [eax],al
00001810  017A52            add [edx+0x52],edi
00001813  0001              add [ecx],al
00001815  7810              js 0x1827
00001817  011B              add [ebx],ebx
00001819  0C07              or al,0x7
0000181B  089001071014      or [eax+0x14100701],dl
00001821  0000              add [eax],al
00001823  001C00            add [eax+eax],bl
00001826  0000              add [eax],al
00001828  48                dec eax
00001829  F3                rep
0000182A  FF                db 0xff
0000182B  FF2A              jmp far [edx]
0000182D  0000              add [eax],al
0000182F  0000              add [eax],al
00001831  0000              add [eax],al
00001833  0000              add [eax],al
00001835  0000              add [eax],al
00001837  001400            add [eax+eax],dl
0000183A  0000              add [eax],al
0000183C  0000              add [eax],al
0000183E  0000              add [eax],al
00001840  017A52            add [edx+0x52],edi
00001843  0001              add [ecx],al
00001845  7810              js 0x1857
00001847  011B              add [ebx],ebx
00001849  0C07              or al,0x7
0000184B  089001000024      or [eax+0x24000001],dl
00001851  0000              add [eax],al
00001853  001C00            add [eax+eax],bl
00001856  0000              add [eax],al
00001858  88F1              mov cl,dh
0000185A  FF                db 0xff
0000185B  FF9001000000      call [eax+0x1]
00001861  0E                push cs
00001862  10460E            adc [esi+0xe],al
00001865  184A0F            sbb [edx+0xf],cl
00001868  0B7708            or esi,[edi+0x8]
0000186B  80003F            add byte [eax],0x3f
0000186E  1A3B              sbb bh,[ebx]
00001870  2A33              sub dh,[ebx]
00001872  2422              and al,0x22
00001874  0000              add [eax],al
00001876  0000              add [eax],al
00001878  1C00              sbb al,0x0
0000187A  0000              add [eax],al
0000187C  44                inc esp
0000187D  0000              add [eax],al
0000187F  00DD              add ch,bl
00001881  F3                rep
00001882  FF                db 0xff
00001883  FF5B00            call far [ebx+0x0]
00001886  0000              add [eax],al
00001888  00410E            add [ecx+0xe],al
0000188B  108602430D06      adc [esi+0x60d4302],al
00001891  02560C            add dl,[esi+0xc]
00001894  07                pop es
00001895  0800              or [eax],al
00001897  001C00            add [eax+eax],bl
0000189A  0000              add [eax],al
0000189C  640000            add [fs:eax],al
0000189F  0018              add [eax],bl
000018A1  F4                hlt
000018A2  FF                db 0xff
000018A3  FFE3              jmp ebx
000018A5  0000              add [eax],al
000018A7  0000              add [eax],al
000018A9  41                inc ecx
000018AA  0E                push cs
000018AB  108602430D06      adc [esi+0x60d4302],al
000018B1  02DE              add bl,dh
000018B3  0C07              or al,0x7
000018B5  0800              or [eax],al
000018B7  001C00            add [eax+eax],bl
000018BA  0000              add [eax],al
000018BC  8400              test [eax],al
000018BE  0000              add [eax],al
000018C0  DBF4              fcomi st4
000018C2  FF                db 0xff
000018C3  FFD4              call esp
000018C5  0000              add [eax],al
000018C7  0000              add [eax],al
000018C9  41                inc ecx
000018CA  0E                push cs
000018CB  108602430D06      adc [esi+0x60d4302],al
000018D1  02CF              add cl,bh
000018D3  0C07              or al,0x7
000018D5  0800              or [eax],al
000018D7  001C00            add [eax+eax],bl
000018DA  0000              add [eax],al
000018DC  A4                movsb
000018DD  0000              add [eax],al
000018DF  008FF5FFFFC7      add [edi-0x3800000b],cl
000018E5  0000              add [eax],al
000018E7  0000              add [eax],al
000018E9  41                inc ecx
000018EA  0E                push cs
000018EB  108602430D06      adc [esi+0x60d4302],al
000018F1  02C2              add al,dl
000018F3  0C07              or al,0x7
000018F5  0800              or [eax],al
000018F7  001C00            add [eax+eax],bl
000018FA  0000              add [eax],al
000018FC  C400              les eax,[eax]
000018FE  0000              add [eax],al
00001900  36F6FF            ss idiv bh
00001903  FF5E00            call far [esi+0x0]
00001906  0000              add [eax],al
00001908  00410E            add [ecx+0xe],al
0000190B  108602430D06      adc [esi+0x60d4302],al
00001911  02590C            add bl,[ecx+0xc]
00001914  07                pop es
00001915  0800              or [eax],al
00001917  002400            add [eax+eax],ah
0000191A  0000              add [eax],al
0000191C  E400              in al,0x0
0000191E  0000              add [eax],al
00001920  74F6              jz 0x1918
00001922  FF                db 0xff
00001923  FFE7              jmp edi
00001925  0100              add [eax],eax
00001927  0000              add [eax],al
00001929  41                inc ecx
0000192A  0E                push cs
0000192B  108602430D06      adc [esi+0x60d4302],al
00001931  48                dec eax
00001932  830303            add dword [ebx],byte +0x3
00001935  DA01              fiadd dword [ecx]
00001937  0C07              or al,0x7
00001939  0800              or [eax],al
0000193B  0000              add [eax],al
0000193D  0000              add [eax],al
0000193F  001C00            add [eax+eax],bl
00001942  0000              add [eax],al
00001944  0C01              or al,0x1
00001946  0000              add [eax],al
00001948  33F8              xor edi,eax
0000194A  FF                db 0xff
0000194B  FF06              inc dword [esi]
0000194D  0000              add [eax],al
0000194F  0000              add [eax],al
00001951  41                inc ecx
00001952  0E                push cs
00001953  108602430D06      adc [esi+0x60d4302],al
00001959  41                inc ecx
0000195A  0C07              or al,0x7
0000195C  0800              or [eax],al
0000195E  0000              add [eax],al
00001960  2400              and al,0x0
00001962  0000              add [eax],al
00001964  2C01              sub al,0x1
00001966  0000              add [eax],al
00001968  19F8              sbb eax,edi
0000196A  FF                db 0xff
0000196B  FF5304            call [ebx+0x4]
0000196E  0000              add [eax],al
00001970  00410E            add [ecx+0xe],al
00001973  108602430D06      adc [esi+0x60d4302],al
00001979  45                inc ebp
0000197A  830303            add dword [ebx],byte +0x3
0000197D  49                dec ecx
0000197E  040C              add al,0xc
00001980  07                pop es
00001981  0800              or [eax],al
00001983  0000              add [eax],al
00001985  0000              add [eax],al
00001987  002400            add [eax+eax],ah
0000198A  0000              add [eax],al
0000198C  54                push esp
0000198D  0100              add [eax],eax
0000198F  0044FCFF          add [esp+edi*8-0x1],al
00001993  FF                db 0xff
00001994  BC00000000        mov esp,0x0
00001999  41                inc ecx
0000199A  0E                push cs
0000199B  108602430D06      adc [esi+0x60d4302],al
000019A1  47                inc edi
000019A2  8C03              mov [ebx],es
000019A4  830402B0          add dword [edx+eax],byte -0x50
000019A8  0C07              or al,0x7
000019AA  0800              or [eax],al
000019AC  0000              add [eax],al
000019AE  0000              add [eax],al
000019B0  44                inc esp
000019B1  0000              add [eax],al
000019B3  007C0100          add [ecx+eax+0x0],bh
000019B7  00D8              add al,bl
000019B9  FC                cld
000019BA  FF                db 0xff
000019BB  FF6500            jmp [ebp+0x0]
000019BE  0000              add [eax],al
000019C0  00420E            add [edx+0xe],al
000019C3  108F02450E18      adc [edi+0x180e4502],cl
000019C9  8E03              mov es,[ebx]
000019CB  45                inc ebp
000019CC  0E                push cs
000019CD  208D04450E28      and [ebp+0x280e4504],cl
000019D3  8C05480E3086      mov [dword 0x86300e48],es
000019D9  06                push es
000019DA  48                dec eax
000019DB  0E                push cs
000019DC  3883074D0E40      cmp [ebx+0x400e4d07],al
000019E2  6C                insb
000019E3  0E                push cs
000019E4  38410E            cmp [ecx+0xe],al
000019E7  30410E            xor [ecx+0xe],al
000019EA  28420E            sub [edx+0xe],al
000019ED  20420E            and [edx+0xe],al
000019F0  18420E            sbb [edx+0xe],al
000019F3  10420E            adc [edx+0xe],al
000019F6  0800              or [eax],al
000019F8  1400              adc al,0x0
000019FA  0000              add [eax],al
000019FC  C401              les eax,[ecx]
000019FE  0000              add [eax],al
00001A00  00FD              add ch,bh
00001A02  FF                db 0xff
00001A03  FF02              inc dword [edx]
00001A05  0000              add [eax],al
00001A07  0000              add [eax],al
00001A09  0000              add [eax],al
00001A0B  0000              add [eax],al
00001A0D  0000              add [eax],al
00001A0F  001400            add [eax+eax],dl
00001A12  0000              add [eax],al
00001A14  DC01              fadd qword [ecx]
00001A16  0000              add [eax],al
00001A18  F8                clc
00001A19  FC                cld
00001A1A  FF                db 0xff
00001A1B  FF10              call [eax]
00001A1D  0000              add [eax],al
00001A1F  0000              add [eax],al
00001A21  0000              add [eax],al
00001A23  0000              add [eax],al
00001A25  0000              add [eax],al
00001A27  0000              add [eax],al
00001A29  0000              add [eax],al
00001A2B  0000              add [eax],al
00001A2D  0000              add [eax],al
00001A2F  0000              add [eax],al
00001A31  0000              add [eax],al
00001A33  0000              add [eax],al
00001A35  0000              add [eax],al
00001A37  0000              add [eax],al
00001A39  0000              add [eax],al
00001A3B  0000              add [eax],al
00001A3D  0000              add [eax],al
00001A3F  0000              add [eax],al
00001A41  0000              add [eax],al
00001A43  0000              add [eax],al
00001A45  0000              add [eax],al
00001A47  0000              add [eax],al
00001A49  0000              add [eax],al
00001A4B  0000              add [eax],al
00001A4D  0000              add [eax],al
00001A4F  0000              add [eax],al
00001A51  0000              add [eax],al
00001A53  0000              add [eax],al
00001A55  0000              add [eax],al
00001A57  0000              add [eax],al
00001A59  0000              add [eax],al
00001A5B  0000              add [eax],al
00001A5D  0000              add [eax],al
00001A5F  0000              add [eax],al
00001A61  0000              add [eax],al
00001A63  0000              add [eax],al
00001A65  0000              add [eax],al
00001A67  0000              add [eax],al
00001A69  0000              add [eax],al
00001A6B  0000              add [eax],al
00001A6D  0000              add [eax],al
00001A6F  0000              add [eax],al
00001A71  0000              add [eax],al
00001A73  0000              add [eax],al
00001A75  0000              add [eax],al
00001A77  0000              add [eax],al
00001A79  0000              add [eax],al
00001A7B  0000              add [eax],al
00001A7D  0000              add [eax],al
00001A7F  0000              add [eax],al
00001A81  0000              add [eax],al
00001A83  0000              add [eax],al
00001A85  0000              add [eax],al
00001A87  0000              add [eax],al
00001A89  0000              add [eax],al
00001A8B  0000              add [eax],al
00001A8D  0000              add [eax],al
00001A8F  0000              add [eax],al
00001A91  0000              add [eax],al
00001A93  0000              add [eax],al
00001A95  0000              add [eax],al
00001A97  0000              add [eax],al
00001A99  0000              add [eax],al
00001A9B  0000              add [eax],al
00001A9D  0000              add [eax],al
00001A9F  0000              add [eax],al
00001AA1  0000              add [eax],al
00001AA3  0000              add [eax],al
00001AA5  0000              add [eax],al
00001AA7  0000              add [eax],al
00001AA9  0000              add [eax],al
00001AAB  0000              add [eax],al
00001AAD  0000              add [eax],al
00001AAF  0000              add [eax],al
00001AB1  0000              add [eax],al
00001AB3  0000              add [eax],al
00001AB5  0000              add [eax],al
00001AB7  0000              add [eax],al
00001AB9  0000              add [eax],al
00001ABB  0000              add [eax],al
00001ABD  0000              add [eax],al
00001ABF  0000              add [eax],al
00001AC1  0000              add [eax],al
00001AC3  0000              add [eax],al
00001AC5  0000              add [eax],al
00001AC7  0000              add [eax],al
00001AC9  0000              add [eax],al
00001ACB  0000              add [eax],al
00001ACD  0000              add [eax],al
00001ACF  0000              add [eax],al
00001AD1  0000              add [eax],al
00001AD3  0000              add [eax],al
00001AD5  0000              add [eax],al
00001AD7  0000              add [eax],al
00001AD9  0000              add [eax],al
00001ADB  0000              add [eax],al
00001ADD  0000              add [eax],al
00001ADF  0000              add [eax],al
00001AE1  0000              add [eax],al
00001AE3  0000              add [eax],al
00001AE5  0000              add [eax],al
00001AE7  0000              add [eax],al
00001AE9  0000              add [eax],al
00001AEB  0000              add [eax],al
00001AED  0000              add [eax],al
00001AEF  0000              add [eax],al
00001AF1  0000              add [eax],al
00001AF3  0000              add [eax],al
00001AF5  0000              add [eax],al
00001AF7  0000              add [eax],al
00001AF9  0000              add [eax],al
00001AFB  0000              add [eax],al
00001AFD  0000              add [eax],al
00001AFF  0000              add [eax],al
00001B01  0000              add [eax],al
00001B03  0000              add [eax],al
00001B05  0000              add [eax],al
00001B07  0000              add [eax],al
00001B09  0000              add [eax],al
00001B0B  0000              add [eax],al
00001B0D  0000              add [eax],al
00001B0F  0000              add [eax],al
00001B11  0000              add [eax],al
00001B13  0000              add [eax],al
00001B15  0000              add [eax],al
00001B17  0000              add [eax],al
00001B19  0000              add [eax],al
00001B1B  0000              add [eax],al
00001B1D  0000              add [eax],al
00001B1F  0000              add [eax],al
00001B21  0000              add [eax],al
00001B23  0000              add [eax],al
00001B25  0000              add [eax],al
00001B27  0000              add [eax],al
00001B29  0000              add [eax],al
00001B2B  0000              add [eax],al
00001B2D  0000              add [eax],al
00001B2F  0000              add [eax],al
00001B31  0000              add [eax],al
00001B33  0000              add [eax],al
00001B35  0000              add [eax],al
00001B37  0000              add [eax],al
00001B39  0000              add [eax],al
00001B3B  0000              add [eax],al
00001B3D  0000              add [eax],al
00001B3F  0000              add [eax],al
00001B41  0000              add [eax],al
00001B43  0000              add [eax],al
00001B45  0000              add [eax],al
00001B47  0000              add [eax],al
00001B49  0000              add [eax],al
00001B4B  0000              add [eax],al
00001B4D  0000              add [eax],al
00001B4F  0000              add [eax],al
00001B51  0000              add [eax],al
00001B53  0000              add [eax],al
00001B55  0000              add [eax],al
00001B57  0000              add [eax],al
00001B59  0000              add [eax],al
00001B5B  0000              add [eax],al
00001B5D  0000              add [eax],al
00001B5F  0000              add [eax],al
00001B61  0000              add [eax],al
00001B63  0000              add [eax],al
00001B65  0000              add [eax],al
00001B67  0000              add [eax],al
00001B69  0000              add [eax],al
00001B6B  0000              add [eax],al
00001B6D  0000              add [eax],al
00001B6F  0000              add [eax],al
00001B71  0000              add [eax],al
00001B73  0000              add [eax],al
00001B75  0000              add [eax],al
00001B77  0000              add [eax],al
00001B79  0000              add [eax],al
00001B7B  0000              add [eax],al
00001B7D  0000              add [eax],al
00001B7F  0000              add [eax],al
00001B81  0000              add [eax],al
00001B83  0000              add [eax],al
00001B85  0000              add [eax],al
00001B87  0000              add [eax],al
00001B89  0000              add [eax],al
00001B8B  0000              add [eax],al
00001B8D  0000              add [eax],al
00001B8F  0000              add [eax],al
00001B91  0000              add [eax],al
00001B93  0000              add [eax],al
00001B95  0000              add [eax],al
00001B97  0000              add [eax],al
00001B99  0000              add [eax],al
00001B9B  0000              add [eax],al
00001B9D  0000              add [eax],al
00001B9F  0000              add [eax],al
00001BA1  0000              add [eax],al
00001BA3  0000              add [eax],al
00001BA5  0000              add [eax],al
00001BA7  0000              add [eax],al
00001BA9  0000              add [eax],al
00001BAB  0000              add [eax],al
00001BAD  0000              add [eax],al
00001BAF  0000              add [eax],al
00001BB1  0000              add [eax],al
00001BB3  0000              add [eax],al
00001BB5  0000              add [eax],al
00001BB7  0000              add [eax],al
00001BB9  0000              add [eax],al
00001BBB  0000              add [eax],al
00001BBD  0000              add [eax],al
00001BBF  0000              add [eax],al
00001BC1  0000              add [eax],al
00001BC3  0000              add [eax],al
00001BC5  0000              add [eax],al
00001BC7  0000              add [eax],al
00001BC9  0000              add [eax],al
00001BCB  0000              add [eax],al
00001BCD  0000              add [eax],al
00001BCF  0000              add [eax],al
00001BD1  0000              add [eax],al
00001BD3  0000              add [eax],al
00001BD5  0000              add [eax],al
00001BD7  0000              add [eax],al
00001BD9  0000              add [eax],al
00001BDB  0000              add [eax],al
00001BDD  0000              add [eax],al
00001BDF  0000              add [eax],al
00001BE1  0000              add [eax],al
00001BE3  0000              add [eax],al
00001BE5  0000              add [eax],al
00001BE7  0000              add [eax],al
00001BE9  0000              add [eax],al
00001BEB  0000              add [eax],al
00001BED  0000              add [eax],al
00001BEF  0000              add [eax],al
00001BF1  0000              add [eax],al
00001BF3  0000              add [eax],al
00001BF5  0000              add [eax],al
00001BF7  0000              add [eax],al
00001BF9  0000              add [eax],al
00001BFB  0000              add [eax],al
00001BFD  0000              add [eax],al
00001BFF  0000              add [eax],al
00001C01  0000              add [eax],al
00001C03  0000              add [eax],al
00001C05  0000              add [eax],al
00001C07  0000              add [eax],al
00001C09  0000              add [eax],al
00001C0B  0000              add [eax],al
00001C0D  0000              add [eax],al
00001C0F  0000              add [eax],al
00001C11  0000              add [eax],al
00001C13  0000              add [eax],al
00001C15  0000              add [eax],al
00001C17  0000              add [eax],al
00001C19  0000              add [eax],al
00001C1B  0000              add [eax],al
00001C1D  0000              add [eax],al
00001C1F  0000              add [eax],al
00001C21  0000              add [eax],al
00001C23  0000              add [eax],al
00001C25  0000              add [eax],al
00001C27  0000              add [eax],al
00001C29  0000              add [eax],al
00001C2B  0000              add [eax],al
00001C2D  0000              add [eax],al
00001C2F  0000              add [eax],al
00001C31  0000              add [eax],al
00001C33  0000              add [eax],al
00001C35  0000              add [eax],al
00001C37  0000              add [eax],al
00001C39  0000              add [eax],al
00001C3B  0000              add [eax],al
00001C3D  0000              add [eax],al
00001C3F  0000              add [eax],al
00001C41  0000              add [eax],al
00001C43  0000              add [eax],al
00001C45  0000              add [eax],al
00001C47  0000              add [eax],al
00001C49  0000              add [eax],al
00001C4B  0000              add [eax],al
00001C4D  0000              add [eax],al
00001C4F  0000              add [eax],al
00001C51  0000              add [eax],al
00001C53  0000              add [eax],al
00001C55  0000              add [eax],al
00001C57  0000              add [eax],al
00001C59  0000              add [eax],al
00001C5B  0000              add [eax],al
00001C5D  0000              add [eax],al
00001C5F  0000              add [eax],al
00001C61  0000              add [eax],al
00001C63  0000              add [eax],al
00001C65  0000              add [eax],al
00001C67  0000              add [eax],al
00001C69  0000              add [eax],al
00001C6B  0000              add [eax],al
00001C6D  0000              add [eax],al
00001C6F  0000              add [eax],al
00001C71  0000              add [eax],al
00001C73  0000              add [eax],al
00001C75  0000              add [eax],al
00001C77  0000              add [eax],al
00001C79  0000              add [eax],al
00001C7B  0000              add [eax],al
00001C7D  0000              add [eax],al
00001C7F  0000              add [eax],al
00001C81  0000              add [eax],al
00001C83  0000              add [eax],al
00001C85  0000              add [eax],al
00001C87  0000              add [eax],al
00001C89  0000              add [eax],al
00001C8B  0000              add [eax],al
00001C8D  0000              add [eax],al
00001C8F  0000              add [eax],al
00001C91  0000              add [eax],al
00001C93  0000              add [eax],al
00001C95  0000              add [eax],al
00001C97  0000              add [eax],al
00001C99  0000              add [eax],al
00001C9B  0000              add [eax],al
00001C9D  0000              add [eax],al
00001C9F  0000              add [eax],al
00001CA1  0000              add [eax],al
00001CA3  0000              add [eax],al
00001CA5  0000              add [eax],al
00001CA7  0000              add [eax],al
00001CA9  0000              add [eax],al
00001CAB  0000              add [eax],al
00001CAD  0000              add [eax],al
00001CAF  0000              add [eax],al
00001CB1  0000              add [eax],al
00001CB3  0000              add [eax],al
00001CB5  0000              add [eax],al
00001CB7  0000              add [eax],al
00001CB9  0000              add [eax],al
00001CBB  0000              add [eax],al
00001CBD  0000              add [eax],al
00001CBF  0000              add [eax],al
00001CC1  0000              add [eax],al
00001CC3  0000              add [eax],al
00001CC5  0000              add [eax],al
00001CC7  0000              add [eax],al
00001CC9  0000              add [eax],al
00001CCB  0000              add [eax],al
00001CCD  0000              add [eax],al
00001CCF  0000              add [eax],al
00001CD1  0000              add [eax],al
00001CD3  0000              add [eax],al
00001CD5  0000              add [eax],al
00001CD7  0000              add [eax],al
00001CD9  0000              add [eax],al
00001CDB  0000              add [eax],al
00001CDD  0000              add [eax],al
00001CDF  0000              add [eax],al
00001CE1  0000              add [eax],al
00001CE3  0000              add [eax],al
00001CE5  0000              add [eax],al
00001CE7  0000              add [eax],al
00001CE9  0000              add [eax],al
00001CEB  0000              add [eax],al
00001CED  0000              add [eax],al
00001CEF  0000              add [eax],al
00001CF1  0000              add [eax],al
00001CF3  0000              add [eax],al
00001CF5  0000              add [eax],al
00001CF7  0000              add [eax],al
00001CF9  0000              add [eax],al
00001CFB  0000              add [eax],al
00001CFD  0000              add [eax],al
00001CFF  0000              add [eax],al
00001D01  0000              add [eax],al
00001D03  0000              add [eax],al
00001D05  0000              add [eax],al
00001D07  0000              add [eax],al
00001D09  0000              add [eax],al
00001D0B  0000              add [eax],al
00001D0D  0000              add [eax],al
00001D0F  0000              add [eax],al
00001D11  0000              add [eax],al
00001D13  0000              add [eax],al
00001D15  0000              add [eax],al
00001D17  0000              add [eax],al
00001D19  0000              add [eax],al
00001D1B  0000              add [eax],al
00001D1D  0000              add [eax],al
00001D1F  0000              add [eax],al
00001D21  0000              add [eax],al
00001D23  0000              add [eax],al
00001D25  0000              add [eax],al
00001D27  0000              add [eax],al
00001D29  0000              add [eax],al
00001D2B  0000              add [eax],al
00001D2D  0000              add [eax],al
00001D2F  0000              add [eax],al
00001D31  0000              add [eax],al
00001D33  0000              add [eax],al
00001D35  0000              add [eax],al
00001D37  0000              add [eax],al
00001D39  0000              add [eax],al
00001D3B  0000              add [eax],al
00001D3D  0000              add [eax],al
00001D3F  0000              add [eax],al
00001D41  0000              add [eax],al
00001D43  0000              add [eax],al
00001D45  0000              add [eax],al
00001D47  0000              add [eax],al
00001D49  0000              add [eax],al
00001D4B  0000              add [eax],al
00001D4D  0000              add [eax],al
00001D4F  0000              add [eax],al
00001D51  0000              add [eax],al
00001D53  0000              add [eax],al
00001D55  0000              add [eax],al
00001D57  0000              add [eax],al
00001D59  0000              add [eax],al
00001D5B  0000              add [eax],al
00001D5D  0000              add [eax],al
00001D5F  0000              add [eax],al
00001D61  0000              add [eax],al
00001D63  0000              add [eax],al
00001D65  0000              add [eax],al
00001D67  0000              add [eax],al
00001D69  0000              add [eax],al
00001D6B  0000              add [eax],al
00001D6D  0000              add [eax],al
00001D6F  0000              add [eax],al
00001D71  0000              add [eax],al
00001D73  0000              add [eax],al
00001D75  0000              add [eax],al
00001D77  0000              add [eax],al
00001D79  0000              add [eax],al
00001D7B  0000              add [eax],al
00001D7D  0000              add [eax],al
00001D7F  0000              add [eax],al
00001D81  0000              add [eax],al
00001D83  0000              add [eax],al
00001D85  0000              add [eax],al
00001D87  0000              add [eax],al
00001D89  0000              add [eax],al
00001D8B  0000              add [eax],al
00001D8D  0000              add [eax],al
00001D8F  0000              add [eax],al
00001D91  0000              add [eax],al
00001D93  0000              add [eax],al
00001D95  0000              add [eax],al
00001D97  0000              add [eax],al
00001D99  0000              add [eax],al
00001D9B  0000              add [eax],al
00001D9D  0000              add [eax],al
00001D9F  0000              add [eax],al
00001DA1  0000              add [eax],al
00001DA3  0000              add [eax],al
00001DA5  0000              add [eax],al
00001DA7  0000              add [eax],al
00001DA9  0000              add [eax],al
00001DAB  0000              add [eax],al
00001DAD  0000              add [eax],al
00001DAF  0000              add [eax],al
00001DB1  0000              add [eax],al
00001DB3  0000              add [eax],al
00001DB5  0000              add [eax],al
00001DB7  0000              add [eax],al
00001DB9  0000              add [eax],al
00001DBB  0000              add [eax],al
00001DBD  0000              add [eax],al
00001DBF  0000              add [eax],al
00001DC1  0000              add [eax],al
00001DC3  0000              add [eax],al
00001DC5  0000              add [eax],al
00001DC7  0000              add [eax],al
00001DC9  0000              add [eax],al
00001DCB  0000              add [eax],al
00001DCD  0000              add [eax],al
00001DCF  0000              add [eax],al
00001DD1  0000              add [eax],al
00001DD3  0000              add [eax],al
00001DD5  0000              add [eax],al
00001DD7  0000              add [eax],al
00001DD9  0000              add [eax],al
00001DDB  0000              add [eax],al
00001DDD  0000              add [eax],al
00001DDF  0000              add [eax],al
00001DE1  0000              add [eax],al
00001DE3  0000              add [eax],al
00001DE5  0000              add [eax],al
00001DE7  0000              add [eax],al
00001DE9  0000              add [eax],al
00001DEB  0000              add [eax],al
00001DED  0000              add [eax],al
00001DEF  0000              add [eax],al
00001DF1  0000              add [eax],al
00001DF3  0000              add [eax],al
00001DF5  0000              add [eax],al
00001DF7  0000              add [eax],al
00001DF9  0000              add [eax],al
00001DFB  0000              add [eax],al
00001DFD  0000              add [eax],al
00001DFF  0000              add [eax],al
00001E01  0000              add [eax],al
00001E03  0000              add [eax],al
00001E05  0000              add [eax],al
00001E07  0000              add [eax],al
00001E09  0000              add [eax],al
00001E0B  0000              add [eax],al
00001E0D  0000              add [eax],al
00001E0F  0030              add [eax],dh
00001E11  0C40              or al,0x40
00001E13  0000              add [eax],al
00001E15  0000              add [eax],al
00001E17  0010              add [eax],dl
00001E19  0C40              or al,0x40
00001E1B  0000              add [eax],al
00001E1D  0000              add [eax],al
00001E1F  0000              add [eax],al
00001E21  0000              add [eax],al
00001E23  0000              add [eax],al
00001E25  0000              add [eax],al
00001E27  0001              add [ecx],al
00001E29  0000              add [eax],al
00001E2B  0000              add [eax],al
00001E2D  0000              add [eax],al
00001E2F  0001              add [ecx],al
00001E31  0000              add [eax],al
00001E33  0000              add [eax],al
00001E35  0000              add [eax],al
00001E37  000C00            add [eax+eax],cl
00001E3A  0000              add [eax],al
00001E3C  0000              add [eax],al
00001E3E  0000              add [eax],al
00001E40  C00940            ror byte [ecx],byte 0x40
00001E43  0000              add [eax],al
00001E45  0000              add [eax],al
00001E47  000D00000000      add [dword 0x0],cl
00001E4D  0000              add [eax],al
00001E4F  0020              add [eax],ah
00001E51  17                pop ss
00001E52  40                inc eax
00001E53  0000              add [eax],al
00001E55  0000              add [eax],al
00001E57  0019              add [ecx],bl
00001E59  0000              add [eax],al
00001E5B  0000              add [eax],al
00001E5D  0000              add [eax],al
00001E5F  0010              add [eax],dl
00001E61  1E                push ds
00001E62  60                pusha
00001E63  0000              add [eax],al
00001E65  0000              add [eax],al
00001E67  001B              add [ebx],bl
00001E69  0000              add [eax],al
00001E6B  0000              add [eax],al
00001E6D  0000              add [eax],al
00001E6F  0008              add [eax],cl
00001E71  0000              add [eax],al
00001E73  0000              add [eax],al
00001E75  0000              add [eax],al
00001E77  001A              add [edx],bl
00001E79  0000              add [eax],al
00001E7B  0000              add [eax],al
00001E7D  0000              add [eax],al
00001E7F  0018              add [eax],bl
00001E81  1E                push ds
00001E82  60                pusha
00001E83  0000              add [eax],al
00001E85  0000              add [eax],al
00001E87  001C00            add [eax+eax],bl
00001E8A  0000              add [eax],al
00001E8C  0000              add [eax],al
00001E8E  0000              add [eax],al
00001E90  0800              or [eax],al
00001E92  0000              add [eax],al
00001E94  0000              add [eax],al
00001E96  0000              add [eax],al
00001E98  F5                cmc
00001E99  FE                db 0xfe
00001E9A  FF6F00            jmp far [edi+0x0]
00001E9D  0000              add [eax],al
00001E9F  009802400000      add [eax+0x4002],bl
00001EA5  0000              add [eax],al
00001EA7  000500000000      add [dword 0x0],al
00001EAD  0000              add [eax],al
00001EAF  008805400000      add [eax+0x4005],cl
00001EB5  0000              add [eax],al
00001EB7  0006              add [esi],al
00001EB9  0000              add [eax],al
00001EBB  0000              add [eax],al
00001EBD  0000              add [eax],al
00001EBF  00D0              add al,dl
00001EC1  024000            add al,[eax+0x0]
00001EC4  0000              add [eax],al
00001EC6  0000              add [eax],al
00001EC8  0A00              or al,[eax]
00001ECA  0000              add [eax],al
00001ECC  0000              add [eax],al
00001ECE  0000              add [eax],al
00001ED0  1F                pop ds
00001ED1  0100              add [eax],eax
00001ED3  0000              add [eax],al
00001ED5  0000              add [eax],al
00001ED7  000B              add [ebx],cl
00001ED9  0000              add [eax],al
00001EDB  0000              add [eax],al
00001EDD  0000              add [eax],al
00001EDF  0018              add [eax],bl
00001EE1  0000              add [eax],al
00001EE3  0000              add [eax],al
00001EE5  0000              add [eax],al
00001EE7  001500000000      add [dword 0x0],dl
00001EED  0000              add [eax],al
00001EEF  0000              add [eax],al
00001EF1  0000              add [eax],al
00001EF3  0000              add [eax],al
00001EF5  0000              add [eax],al
00001EF7  0003              add [ebx],al
00001EF9  0000              add [eax],al
00001EFB  0000              add [eax],al
00001EFD  0000              add [eax],al
00001EFF  0000              add [eax],al
00001F01  206000            and [eax+0x0],ah
00001F04  0000              add [eax],al
00001F06  0000              add [eax],al
00001F08  0200              add al,[eax]
00001F0A  0000              add [eax],al
00001F0C  0000              add [eax],al
00001F0E  0000              add [eax],al
00001F10  40                inc eax
00001F11  0200              add al,[eax]
00001F13  0000              add [eax],al
00001F15  0000              add [eax],al
00001F17  001400            add [eax+eax],dl
00001F1A  0000              add [eax],al
00001F1C  0000              add [eax],al
00001F1E  0000              add [eax],al
00001F20  07                pop es
00001F21  0000              add [eax],al
00001F23  0000              add [eax],al
00001F25  0000              add [eax],al
00001F27  0017              add [edi],dl
00001F29  0000              add [eax],al
00001F2B  0000              add [eax],al
00001F2D  0000              add [eax],al
00001F2F  008007400000      add [eax+0x4007],al
00001F35  0000              add [eax],al
00001F37  0007              add [edi],al
00001F39  0000              add [eax],al
00001F3B  0000              add [eax],al
00001F3D  0000              add [eax],al
00001F3F  0038              add [eax],bh
00001F41  07                pop es
00001F42  40                inc eax
00001F43  0000              add [eax],al
00001F45  0000              add [eax],al
00001F47  0008              add [eax],cl
00001F49  0000              add [eax],al
00001F4B  0000              add [eax],al
00001F4D  0000              add [eax],al
00001F4F  004800            add [eax+0x0],cl
00001F52  0000              add [eax],al
00001F54  0000              add [eax],al
00001F56  0000              add [eax],al
00001F58  0900              or [eax],eax
00001F5A  0000              add [eax],al
00001F5C  0000              add [eax],al
00001F5E  0000              add [eax],al
00001F60  1800              sbb [eax],al
00001F62  0000              add [eax],al
00001F64  0000              add [eax],al
00001F66  0000              add [eax],al
00001F68  FE                db 0xfe
00001F69  FF                db 0xff
00001F6A  FF6F00            jmp far [edi+0x0]
00001F6D  0000              add [eax],al
00001F6F  00E8              add al,ch
00001F71  06                push es
00001F72  40                inc eax
00001F73  0000              add [eax],al
00001F75  0000              add [eax],al
00001F77  00FF              add bh,bh
00001F79  FF                db 0xff
00001F7A  FF6F00            jmp far [edi+0x0]
00001F7D  0000              add [eax],al
00001F7F  0001              add [ecx],al
00001F81  0000              add [eax],al
00001F83  0000              add [eax],al
00001F85  0000              add [eax],al
00001F87  00F0              add al,dh
00001F89  FF                db 0xff
00001F8A  FF6F00            jmp far [edi+0x0]
00001F8D  0000              add [eax],al
00001F8F  00A806400000      add [eax+0x4006],ch
00001F95  0000              add [eax],al
00001F97  0000              add [eax],al
00001F99  0000              add [eax],al
00001F9B  0000              add [eax],al
00001F9D  0000              add [eax],al
00001F9F  0000              add [eax],al
00001FA1  0000              add [eax],al
00001FA3  0000              add [eax],al
00001FA5  0000              add [eax],al
00001FA7  0000              add [eax],al
00001FA9  0000              add [eax],al
00001FAB  0000              add [eax],al
00001FAD  0000              add [eax],al
00001FAF  0000              add [eax],al
00001FB1  0000              add [eax],al
00001FB3  0000              add [eax],al
00001FB5  0000              add [eax],al
00001FB7  0000              add [eax],al
00001FB9  0000              add [eax],al
00001FBB  0000              add [eax],al
00001FBD  0000              add [eax],al
00001FBF  0000              add [eax],al
00001FC1  0000              add [eax],al
00001FC3  0000              add [eax],al
00001FC5  0000              add [eax],al
00001FC7  0000              add [eax],al
00001FC9  0000              add [eax],al
00001FCB  0000              add [eax],al
00001FCD  0000              add [eax],al
00001FCF  0000              add [eax],al
00001FD1  0000              add [eax],al
00001FD3  0000              add [eax],al
00001FD5  0000              add [eax],al
00001FD7  0000              add [eax],al
00001FD9  0000              add [eax],al
00001FDB  0000              add [eax],al
00001FDD  0000              add [eax],al
00001FDF  0000              add [eax],al
00001FE1  0000              add [eax],al
00001FE3  0000              add [eax],al
00001FE5  0000              add [eax],al
00001FE7  0000              add [eax],al
00001FE9  0000              add [eax],al
00001FEB  0000              add [eax],al
00001FED  0000              add [eax],al
00001FEF  0000              add [eax],al
00001FF1  0000              add [eax],al
00001FF3  0000              add [eax],al
00001FF5  0000              add [eax],al
00001FF7  0000              add [eax],al
00001FF9  0000              add [eax],al
00001FFB  0000              add [eax],al
00001FFD  0000              add [eax],al
00001FFF  0028              add [eax],ch
00002001  1E                push ds
00002002  60                pusha
00002003  0000              add [eax],al
00002005  0000              add [eax],al
00002007  0000              add [eax],al
00002009  0000              add [eax],al
0000200B  0000              add [eax],al
0000200D  0000              add [eax],al
0000200F  0000              add [eax],al
00002011  0000              add [eax],al
00002013  0000              add [eax],al
00002015  0000              add [eax],al
00002017  00F6              add dh,dh
00002019  094000            or [eax+0x0],eax
0000201C  0000              add [eax],al
0000201E  0000              add [eax],al
00002020  06                push es
00002021  0A4000            or al,[eax+0x0]
00002024  0000              add [eax],al
00002026  0000              add [eax],al
00002028  16                push ss
00002029  0A4000            or al,[eax+0x0]
0000202C  0000              add [eax],al
0000202E  0000              add [eax],al
00002030  260A4000          or al,[es:eax+0x0]
00002034  0000              add [eax],al
00002036  0000              add [eax],al
00002038  360A4000          or al,[ss:eax+0x0]
0000203C  0000              add [eax],al
0000203E  0000              add [eax],al
00002040  46                inc esi
00002041  0A4000            or al,[eax+0x0]
00002044  0000              add [eax],al
00002046  0000              add [eax],al
00002048  56                push esi
00002049  0A4000            or al,[eax+0x0]
0000204C  0000              add [eax],al
0000204E  0000              add [eax],al
00002050  660A4000          o16 or al,[eax+0x0]
00002054  0000              add [eax],al
00002056  0000              add [eax],al
00002058  760A              jna 0x2064
0000205A  40                inc eax
0000205B  0000              add [eax],al
0000205D  0000              add [eax],al
0000205F  00860A400000      add [esi+0x400a],al
00002065  0000              add [eax],al
00002067  00960A400000      add [esi+0x400a],dl
0000206D  0000              add [eax],al
0000206F  00A60A400000      add [esi+0x400a],ah
00002075  0000              add [eax],al
00002077  00B60A400000      add [esi+0x400a],dh
0000207D  0000              add [eax],al
0000207F  00C6              add dh,al
00002081  0A4000            or al,[eax+0x0]
00002084  0000              add [eax],al
00002086  0000              add [eax],al
00002088  D6                salc
00002089  0A4000            or al,[eax+0x0]
0000208C  0000              add [eax],al
0000208E  0000              add [eax],al
00002090  E60A              out 0xa,al
00002092  40                inc eax
00002093  0000              add [eax],al
00002095  0000              add [eax],al
00002097  00F6              add dh,dh
00002099  0A4000            or al,[eax+0x0]
0000209C  0000              add [eax],al
0000209E  0000              add [eax],al
000020A0  06                push es
000020A1  0B4000            or eax,[eax+0x0]
000020A4  0000              add [eax],al
000020A6  0000              add [eax],al
000020A8  16                push ss
000020A9  0B4000            or eax,[eax+0x0]
000020AC  0000              add [eax],al
000020AE  0000              add [eax],al
000020B0  260B4000          or eax,[es:eax+0x0]
000020B4  0000              add [eax],al
000020B6  0000              add [eax],al
000020B8  360B4000          or eax,[ss:eax+0x0]
000020BC  0000              add [eax],al
000020BE  0000              add [eax],al
000020C0  46                inc esi
000020C1  0B4000            or eax,[eax+0x0]
000020C4  0000              add [eax],al
000020C6  0000              add [eax],al
000020C8  56                push esi
000020C9  0B4000            or eax,[eax+0x0]
000020CC  0000              add [eax],al
000020CE  0000              add [eax],al
000020D0  660B4000          or ax,[eax+0x0]
000020D4  0000              add [eax],al
000020D6  0000              add [eax],al
000020D8  0000              add [eax],al
000020DA  0000              add [eax],al
000020DC  0000              add [eax],al
000020DE  0000              add [eax],al
000020E0  0000              add [eax],al
000020E2  0000              add [eax],al
000020E4  0000              add [eax],al
000020E6  0000              add [eax],al
000020E8  0000              add [eax],al
000020EA  0000              add [eax],al
000020EC  0000              add [eax],al
000020EE  0000              add [eax],al
000020F0  0000              add [eax],al
000020F2  0000              add [eax],al
000020F4  0000              add [eax],al
000020F6  0000              add [eax],al
000020F8  0000              add [eax],al
000020FA  0000              add [eax],al
000020FC  0000              add [eax],al
000020FE  0000              add [eax],al
00002100  BA1A70B0DD        mov edx,0xddb0701a
00002105  06                push es
00002106  07                pop es
00002107  80126E            adc byte [edx],0x6e
0000210A  CE                into
0000210B  4C                dec esp
0000210C  EC                in al,dx
0000210D  51                push ecx
0000210E  D6                salc
0000210F  91                xchg eax,ecx
00002110  C08F9052DF8005    ror byte [edi-0x7f20ad70],byte 0x5
00002117  89FC              mov esp,edi
00002119  A10F0A2D49        mov eax,[0x492d0a0f]
0000211E  5F                pop edi
0000211F  9BF4              wait hlt
00002121  56                push esi
00002122  A826              test al,0x26
00002124  52                push edx
00002125  48                dec eax
00002126  A1EB0B2B55        mov eax,[0x552b0beb]
0000212B  9E                sahf
0000212C  DF                db 0xdf
0000212D  CC                int3
0000212E  AE                scasb
0000212F  1162A7            adc [edx-0x59],esp
00002132  34DE              xor al,0xde
00002134  DB9E3E4388DB      fistp dword [esi-0x2477bcc2]
0000213A  C3                ret
0000213B  C7                db 0xc7
0000213C  EAFAA5BF232B61    jmp 0x612b:0x23bfa5fa
00002143  49                dec ecx
00002144  4E                dec esi
00002145  5F                pop edi
00002146  BEC5A9719E        mov esi,0x9e71a9c5
0000214B  E763              out 0x63,eax
0000214D  F77578            div dword [ebp+0x78]
00002150  83DA67            sbb edx,byte +0x67
00002153  F3CDA2            rep int 0xa2
00002156  A97FB3702E        test eax,0x2e70b37f
0000215B  3D6DE8AF1C        cmp eax,0x1cafe86d
00002160  DBD2              fcmovnbe st2
00002162  D3A780E544C1      shl dword [edi-0x3ebb1a80],cl
00002168  0F                db 0x0f
00002169  A6                cmpsb
0000216A  268ABD753ECF91    mov bh,[es:ebp-0x6e30c18b]
00002171  8AA825136F4E      mov ch,[eax+0x4e6f1325]
00002177  C7                db 0xc7
00002178  E07D              loopne 0x21f7
0000217A  044D              add al,0x4d
0000217C  65B36A            gs mov bl,0x6a
0000217F  40                inc eax
00002180  A96A1D0461        test eax,0x61041d6a
00002185  89630C            mov [ebx+0xc],esp
00002188  2B5111            sub edx,[ecx+0x11]
0000218B  6C                insb
0000218C  8D18              lea ebx,[eax]
0000218E  8A60B0            mov ah,[eax-0x50]
00002191  133E              adc edi,[esi]
00002193  1E                push ds
00002194  30DE              xor dh,bl
00002196  B449              mov ah,0x49
00002198  7352              jnc 0x21ec
0000219A  AF                scasd
0000219B  2DA99FCF59        sub eax,0x59cf9fa9
000021A0  98                cwde
000021A1  9D                popf
000021A2  302D6D7A7332      xor [dword 0x32737a6d],ch
000021A8  9C                pushf
000021A9  BBD70145AA        mov ebx,0xaa4501d7
000021AE  82                db 0x82
000021AF  1D0B306E08        sbb eax,0x86e300b
000021B4  FA                cli
000021B5  E28E              loop 0x2145
000021B7  7717              ja 0x21d0
000021B9  255CB3D1F6        and eax,0xf6d1b35c
000021BE  351013ADA9        xor eax,0xa9ad1310
000021C3  3C99              cmp al,0x99
000021C5  54                push esp
000021C6  97                xchg eax,edi
000021C7  2B36              sub esi,[esi]
000021C9  9ADEBED30990CB    call 0xcb90:0x9d3bede
000021D0  0FBE43F2          movsx eax,byte [ebx-0xe]
000021D4  3D5A76EE31        cmp eax,0x31ee765a
000021D9  75F0              jnz 0x21cb
000021DB  6F                outsd
000021DC  0DA6314CA3        or eax,0xa34c31a6
000021E1  A340749927        mov [0x27997440],eax
000021E6  28691C            sub [ecx+0x1c],ch
000021E9  AD                lodsd
000021EA  CC                int3
000021EB  8433              test [ebx],dh
000021ED  B4DC              mov ah,0xdc
000021EF  DA6D6A            fisubr dword [ebp+0x6a]
000021F2  1969C8            sbb [ecx-0x38],ebp
000021F5  0FC377C5          movnti [edi-0x3b],esi
000021F9  41                inc ecx
000021FA  E90828CDFF        jmp 0xffcd4a07
000021FF  F3EF              rep out dx,eax
00002201  711B              jno 0x221e
00002203  755B              jnz 0x2260
00002205  13C3              adc eax,ebx
00002207  786D              js 0x2276
00002209  C6                db 0xc6
0000220A  4F                dec edi
0000220B  BAF703C9F8        mov edx,0xf8c903f7
00002210  AA                stosb
00002211  99                cdq
00002212  16                push ss
00002213  C3                ret
00002214  95                xchg eax,ebp
00002215  0A0467            or al,[edi]
00002218  7ADE              jpe 0x21f8
0000221A  6A06              push byte +0x6
0000221C  280C23            sub [ebx],cl
0000221F  B933ADE24F        mov ecx,0x4fe2ad33
00002224  FE                db 0xfe
00002225  2A5BD8            sub bl,[ebx-0x28]
00002228  92                xchg eax,edx
00002229  FE                db 0xfe
0000222A  57                push edi
0000222B  186A83            sbb [edx-0x7d],ch
0000222E  2D4085771A        sub eax,0x1a778540
00002233  C9                leave
00002234  5D                pop ebp
00002235  9A08333FFA3CE9    call 0xe93c:0xfa3f3308
0000223C  40                inc eax
0000223D  651D85D90E1E      gs sbb eax,0x1e0ed985
00002243  69F8859EE5EB      imul edi,eax,dword 0xebe59e85
00002249  92                xchg eax,edx
0000224A  D2D7              rcl bh,cl
0000224C  DE97863EE706      ficom word [edi+0x6e73e86]
00002252  232B              and ebp,[ebx]
00002254  C8328F65          enter 0x8f32,0x65
00002258  FB                sti
00002259  5F                pop edi
0000225A  E7F0              out 0xf0,eax
0000225C  58                pop eax
0000225D  8839              mov [ecx],bh
0000225F  6C                insb
00002260  6C                insb
00002261  21E8              and eax,ebp
00002263  AA                stosb
00002264  12AB2D3B89F8      adc ch,[ebx-0x776c4d3]
0000226A  50                push eax
0000226B  2902              sub [edx],eax
0000226D  F785076B6058E965  test dword [ebp+0x58606b07],0x4ea565e9
         -A54E
00002277  1810              sbb [eax],dl
00002279  8E10              mov ss,[eax]
0000227B  9B                wait
0000227C  D3                db 0xd3
0000227D  F5                cmc
0000227E  40                inc eax
0000227F  DF45BD            fild word [ebp-0x43]
00002282  92                xchg eax,edx
00002283  59                pop ecx
00002284  2F                das
00002285  52                push edx
00002286  CD62              int 0x62
00002288  1D22B5920D        sbb eax,0xd92b522
0000228D  7DD3              jnl 0x2262
0000228F  C203EF            ret 0xef03
00002292  C6                db 0xc6
00002293  346D              xor al,0x6d
00002295  866285            xchg ah,[edx-0x7b]
00002298  CD13              int 0x13
0000229A  A4                movsb
0000229B  BE556DAB66        mov esi,0x66ab6d55
000022A0  F9                stc
000022A1  3694              ss xchg eax,esp
000022A3  1A2D7E953A63      sbb ch,[dword 0x633a957e]
000022A9  A3D610B3DD        mov [0xddb310d6],eax
000022AE  16                push ss
000022AF  55                push ebp
000022B0  FB                sti
000022B1  0CEA              or al,0xea
000022B3  6968BC03B0580A    imul ebp,[eax-0x44],dword 0xa58b003
000022BA  3D9E4E76A5        cmp eax,0xa5764e9e
000022BF  71A2              jno 0x2263
000022C1  6E                outsb
000022C2  60                pusha
000022C3  04C3              add al,0xc3
000022C5  5B                pop ebx
000022C6  64BAE16BD77A      fs mov edx,0x7ad76be1
000022CC  E343              jecxz 0x2311
000022CE  DB3B              fstp tword [ebx]
000022D0  2C40              sub al,0x40
000022D2  E17B              loope 0x234f
000022D4  59                pop ecx
000022D5  F20AF8            repne or bh,al
000022D8  40                inc eax
000022D9  819EB1230C5557C0  sbb dword [esi+0x550c23b1],0x8a4dc057
         -4D8A
000022E3  CC                int3
000022E4  D041E3            rol byte [ecx-0x1d],1
000022E7  65858530A10154    test [gs:ebp+0x5401a130],eax
000022EE  A4                movsb
000022EF  92                xchg eax,edx
000022F0  36DC7EFC          fdivr qword [ss:esi-0x4]
000022F4  3B89C32ABEA2      cmp ecx,[ecx-0x5d41d53d]
000022FA  4D                dec ebp
000022FB  F09C              lock pushf
000022FD  95                xchg eax,ebp
000022FE  47                inc edi
000022FF  5C                pop esp
00002300  E2D2              loop 0x22d4
00002302  29B3130C1999      sub [ebx-0x66e6f3ed],esi
00002308  92                xchg eax,edx
00002309  4A                dec edx
0000230A  3A939EDF26D5      cmp dl,[ebx-0x2ad92062]
00002310  BCA5D1F72E        mov esp,0x2ef7d1a5
00002315  94                xchg eax,esp
00002316  21ED              and ebp,ebp
00002318  37                aaa
00002319  6E                outsb
0000231A  DDD3              fst st3
0000231C  032530E6F859      add esp,[dword 0x59f8e630]
00002322  9A0B65B3A5F8FD    call 0xfdf8:0xa5b3650b
00002329  DF8B9BBFB270      fisttp word [ebx+0x70b2bf9b]
0000232F  7B57              jpo 0x2388
00002331  42                inc edx
00002332  7386              jnc 0x22ba
00002334  D7                xlatb
00002335  94                xchg eax,esp
00002336  730F              jnc 0x2347
00002338  0351E2            add edx,[ecx-0x1e]
0000233B  07                pop es
0000233C  7712              ja 0x2350
0000233E  EE                out dx,al
0000233F  6F                outsd
00002340  6C                insb
00002341  887AD1            mov [edx-0x2f],bh
00002344  3B20              cmp esp,[eax]
00002346  C9                leave
00002347  38FF              cmp bh,bh
00002349  55                push ebp
0000234A  D4BF              aam 0xbf
0000234C  07                pop es
0000234D  45                inc ebp
0000234E  3B5F88            cmp ebx,[edi-0x78]
00002351  AE                scasb
00002352  E55F              in eax,0x5f
00002354  42                inc edx
00002355  59                pop ecx
00002356  6E                outsb
00002357  46                inc esi
00002358  AA                stosb
00002359  51                push ecx
0000235A  4D                dec ebp
0000235B  22643B91          and ah,[ebx+edi-0x6f]
0000235F  D0C3              rol bl,1
00002361  0CA2              or al,0xa2
00002363  FF2C6C            jmp far [esp+ebp*2]
00002366  382CC2            cmp [edx+eax*8],ch
00002369  0CEB              or al,0xeb
0000236B  C9                leave
0000236C  52                push edx
0000236D  27                daa
0000236E  28DA              sub dl,bl
00002370  D50E              aad 0xe
00002372  3A18              cmp bl,[eax]
00002374  67A85E            test al,0x5e
00002377  12FA              adc bh,dl
00002379  AB                stosd
0000237A  345E              xor al,0x5e
0000237C  E7C5              out 0xc5,eax
0000237E  2F                das
0000237F  AA                stosb
00002380  D2D1              rcl cl,cl
00002382  AA                stosb
00002383  FE                db 0xfe
00002384  3EE22B            ds loop 0x23b2
00002387  00EF              add bh,ch
00002389  17                pop ss
0000238A  C9                leave
0000238B  41                inc ecx
0000238C  3EF21B13          repne sbb edx,[ds:ebx]
00002390  01562B            add [esi+0x2b],edx
00002393  68FE897BF9        push dword 0xf97b89fe
00002398  35AF571C75        xor eax,0x751c57af
0000239D  86C7              xchg al,bh
0000239F  48                dec eax
000023A0  58                pop eax
000023A1  7146              jno 0x23e9
000023A3  96                xchg eax,esi
000023A4  54                push esp
000023A5  7296              jc 0x233d
000023A7  43                inc ebx
000023A8  896084            mov [eax-0x7c],esp
000023AB  C7                db 0xc7
000023AC  53                push ebx
000023AD  A0DB54F607        mov al,[0x7f654db]
000023B2  BDF59038EE        mov ebp,0xee3890f5
000023B7  C6                db 0xc6
000023B8  E846E35DCD        call 0xcd5e0703
000023BD  AA                stosb
000023BE  A6                cmpsb
000023BF  251CEDBC70        and eax,0x70bced1c
000023C4  5F                pop edi
000023C5  52                push edx
000023C6  B4E8              mov ah,0xe8
000023C8  B338              mov bl,0x38
000023CA  B006              mov al,0x6
000023CC  D9                db 0xd9
000023CD  8B5BD0            mov ebx,[ebx-0x30]
000023D0  92                xchg eax,edx
000023D1  18C5              sbb ch,al
000023D3  2351B4            and edx,[ecx-0x4c]
000023D6  EA39FACD97C777    jmp 0x77c7:0x97cdfa39
000023DD  3DED986AB5        cmp eax,0xb56a98ed
000023E2  9D                popf
000023E3  2E1101            adc [cs:ecx],eax
000023E6  E9F26DC06D        jmp 0x6dc091dd
000023EB  51                push ecx
000023EC  0449              add al,0x49
000023EE  8D31              lea esi,[ecx]
000023F0  896FAC            mov [edi-0x54],ebp
000023F3  E361              jecxz 0x2456
000023F5  B6CC              mov dh,0xcc
000023F7  87EE              xchg ebp,esi
000023F9  95                xchg eax,ebp
000023FA  DCE2              fsubr to st2
000023FC  2F                das
000023FD  F4                hlt
000023FE  A2C9BAE041        mov [0x41e0bac9],al
00002403  0F                db 0x0f
00002404  27                daa
00002405  61                popa
00002406  A1B7A4B0FF        mov eax,[0xffb0a4b7]
0000240B  4F                dec edi
0000240C  668EA9F4204912    o16 mov gs,[ecx+0x124920f4]
00002413  DD                db 0xdd
00002414  68863EF82B        push dword 0x2bf83e86
00002419  705F              jo 0x247a
0000241B  004743            add [edi+0x43],al
0000241E  43                inc ebx
0000241F  3A20              cmp ah,[eax]
00002421  285562            sub [ebp+0x62],dl
00002424  756E              jnz 0x2494
00002426  7475              jz 0x249d
00002428  20342E            and [esi+ebp],dh
0000242B  382E              cmp [esi],ch
0000242D  342D              xor al,0x2d
0000242F  327562            xor dh,[ebp+0x62]
00002432  756E              jnz 0x24a2
00002434  7475              jz 0x24ab
00002436  317E31            xor [esi+0x31],edi
00002439  342E              xor al,0x2e
0000243B  30342E            xor [esi+ebp],dh
0000243E  3329              xor ebp,[ecx]
00002440  20342E            and [esi+ebp],dh
00002443  382E              cmp [esi],ch
00002445  3400              xor al,0x0
00002447  47                inc edi
00002448  43                inc ebx
00002449  43                inc ebx
0000244A  3A20              cmp ah,[eax]
0000244C  285562            sub [ebp+0x62],dl
0000244F  756E              jnz 0x24bf
00002451  7475              jz 0x24c8
00002453  20342E            and [esi+ebp],dh
00002456  382E              cmp [esi],ch
00002458  322D31397562      xor ch,[dword 0x62753931]
0000245E  756E              jnz 0x24ce
00002460  7475              jz 0x24d7
00002462  3129              xor [ecx],ebp
00002464  20342E            and [esi+ebp],dh
00002467  382E              cmp [esi],ch
00002469  3200              xor al,[eax]
0000246B  002E              add [esi],ch
0000246D  7368              jnc 0x24d7
0000246F  7374              jnc 0x24e5
00002471  7274              jc 0x24e7
00002473  61                popa
00002474  6200              bound eax,[eax]
00002476  2E696E7465727000  imul ebp,[cs:esi+0x74],dword 0x707265
0000247E  2E6E              cs outsb
00002480  6F                outsd
00002481  7465              jz 0x24e8
00002483  2E41              cs inc ecx
00002485  42                inc edx
00002486  49                dec ecx
00002487  2D74616700        sub eax,0x676174
0000248C  2E6E              cs outsb
0000248E  6F                outsd
0000248F  7465              jz 0x24f6
00002491  2E676E            cs a16 outsb
00002494  752E              jnz 0x24c4
00002496  627569            bound esi,[ebp+0x69]
00002499  6C                insb
0000249A  642D6964002E      fs sub eax,0x2e006469
000024A0  676E              a16 outsb
000024A2  752E              jnz 0x24d2
000024A4  6861736800        push dword 0x687361
000024A9  2E64796E          fs jns 0x251b
000024AD  7379              jnc 0x2528
000024AF  6D                insd
000024B0  002E              add [esi],ch
000024B2  64796E            fs jns 0x2523
000024B5  7374              jnc 0x252b
000024B7  7200              jc 0x24b9
000024B9  2E676E            cs a16 outsb
000024BC  752E              jnz 0x24ec
000024BE  7665              jna 0x2525
000024C0  7273              jc 0x2535
000024C2  696F6E002E676E    imul ebp,[edi+0x6e],dword 0x6e672e00
000024C9  752E              jnz 0x24f9
000024CB  7665              jna 0x2532
000024CD  7273              jc 0x2542
000024CF  696F6E5F72002E    imul ebp,[edi+0x6e],dword 0x2e00725f
000024D6  7265              jc 0x253d
000024D8  6C                insb
000024D9  61                popa
000024DA  2E64796E          fs jns 0x254c
000024DE  002E              add [esi],ch
000024E0  7265              jc 0x2547
000024E2  6C                insb
000024E3  61                popa
000024E4  2E706C            cs jo 0x2553
000024E7  7400              jz 0x24e9
000024E9  2E696E6974002E74  imul ebp,[cs:esi+0x69],dword 0x742e0074
000024F1  657874            gs js 0x2568
000024F4  002E              add [esi],ch
000024F6  66696E69002E      imul bp,[esi+0x69],word 0x2e00
000024FC  726F              jc 0x256d
000024FE  6461              fs popa
00002500  7461              jz 0x2563
00002502  002E              add [esi],ch
00002504  65685F667261      gs push dword 0x6172665f
0000250A  6D                insd
0000250B  655F              gs pop edi
0000250D  686472002E        push dword 0x2e007264
00002512  65685F667261      gs push dword 0x6172665f
00002518  6D                insd
00002519  65002E            add [gs:esi],ch
0000251C  696E69745F6172    imul ebp,[esi+0x69],dword 0x72615f74
00002523  7261              jc 0x2586
00002525  7900              jns 0x2527
00002527  2E66696E695F61    imul bp,[cs:esi+0x69],word 0x615f
0000252E  7272              jc 0x25a2
00002530  61                popa
00002531  7900              jns 0x2533
00002533  2E6A63            cs push byte +0x63
00002536  7200              jc 0x2538
00002538  2E64796E          fs jns 0x25aa
0000253C  61                popa
0000253D  6D                insd
0000253E  6963002E676F74    imul esp,[ebx+0x0],dword 0x746f672e
00002545  002E              add [esi],ch
00002547  676F              a16 outsd
00002549  742E              jz 0x2579
0000254B  706C              jo 0x25b9
0000254D  7400              jz 0x254f
0000254F  2E6461            fs popa
00002552  7461              jz 0x25b5
00002554  002E              add [esi],ch
00002556  627373            bound esi,[ebx+0x73]
00002559  002E              add [esi],ch
0000255B  636F6D            arpl [edi+0x6d],bp
0000255E  6D                insd
0000255F  656E              gs outsb
00002561  7400              jz 0x2563
00002563  0000              add [eax],al
00002565  0000              add [eax],al
00002567  0000              add [eax],al
00002569  0000              add [eax],al
0000256B  0000              add [eax],al
0000256D  0000              add [eax],al
0000256F  0000              add [eax],al
00002571  0000              add [eax],al
00002573  0000              add [eax],al
00002575  0000              add [eax],al
00002577  0000              add [eax],al
00002579  0000              add [eax],al
0000257B  0000              add [eax],al
0000257D  0000              add [eax],al
0000257F  0000              add [eax],al
00002581  0000              add [eax],al
00002583  0000              add [eax],al
00002585  0000              add [eax],al
00002587  0000              add [eax],al
00002589  0000              add [eax],al
0000258B  0000              add [eax],al
0000258D  0000              add [eax],al
0000258F  0000              add [eax],al
00002591  0000              add [eax],al
00002593  0000              add [eax],al
00002595  0000              add [eax],al
00002597  0000              add [eax],al
00002599  0000              add [eax],al
0000259B  0000              add [eax],al
0000259D  0000              add [eax],al
0000259F  0000              add [eax],al
000025A1  0000              add [eax],al
000025A3  0000              add [eax],al
000025A5  0000              add [eax],al
000025A7  000B              add [ebx],cl
000025A9  0000              add [eax],al
000025AB  0001              add [ecx],al
000025AD  0000              add [eax],al
000025AF  0002              add [edx],al
000025B1  0000              add [eax],al
000025B3  0000              add [eax],al
000025B5  0000              add [eax],al
000025B7  0038              add [eax],bh
000025B9  024000            add al,[eax+0x0]
000025BC  0000              add [eax],al
000025BE  0000              add [eax],al
000025C0  3802              cmp [edx],al
000025C2  0000              add [eax],al
000025C4  0000              add [eax],al
000025C6  0000              add [eax],al
000025C8  1C00              sbb al,0x0
000025CA  0000              add [eax],al
000025CC  0000              add [eax],al
000025CE  0000              add [eax],al
000025D0  0000              add [eax],al
000025D2  0000              add [eax],al
000025D4  0000              add [eax],al
000025D6  0000              add [eax],al
000025D8  0100              add [eax],eax
000025DA  0000              add [eax],al
000025DC  0000              add [eax],al
000025DE  0000              add [eax],al
000025E0  0000              add [eax],al
000025E2  0000              add [eax],al
000025E4  0000              add [eax],al
000025E6  0000              add [eax],al
000025E8  1300              adc eax,[eax]
000025EA  0000              add [eax],al
000025EC  07                pop es
000025ED  0000              add [eax],al
000025EF  0002              add [edx],al
000025F1  0000              add [eax],al
000025F3  0000              add [eax],al
000025F5  0000              add [eax],al
000025F7  00540240          add [edx+eax+0x40],dl
000025FB  0000              add [eax],al
000025FD  0000              add [eax],al
000025FF  00540200          add [edx+eax+0x0],dl
00002603  0000              add [eax],al
00002605  0000              add [eax],al
00002607  0020              add [eax],ah
00002609  0000              add [eax],al
0000260B  0000              add [eax],al
0000260D  0000              add [eax],al
0000260F  0000              add [eax],al
00002611  0000              add [eax],al
00002613  0000              add [eax],al
00002615  0000              add [eax],al
00002617  000400            add [eax+eax],al
0000261A  0000              add [eax],al
0000261C  0000              add [eax],al
0000261E  0000              add [eax],al
00002620  0000              add [eax],al
00002622  0000              add [eax],al
00002624  0000              add [eax],al
00002626  0000              add [eax],al
00002628  2100              and [eax],eax
0000262A  0000              add [eax],al
0000262C  07                pop es
0000262D  0000              add [eax],al
0000262F  0002              add [edx],al
00002631  0000              add [eax],al
00002633  0000              add [eax],al
00002635  0000              add [eax],al
00002637  00740240          add [edx+eax+0x40],dh
0000263B  0000              add [eax],al
0000263D  0000              add [eax],al
0000263F  00740200          add [edx+eax+0x0],dh
00002643  0000              add [eax],al
00002645  0000              add [eax],al
00002647  002400            add [eax+eax],ah
0000264A  0000              add [eax],al
0000264C  0000              add [eax],al
0000264E  0000              add [eax],al
00002650  0000              add [eax],al
00002652  0000              add [eax],al
00002654  0000              add [eax],al
00002656  0000              add [eax],al
00002658  0400              add al,0x0
0000265A  0000              add [eax],al
0000265C  0000              add [eax],al
0000265E  0000              add [eax],al
00002660  0000              add [eax],al
00002662  0000              add [eax],al
00002664  0000              add [eax],al
00002666  0000              add [eax],al
00002668  3400              xor al,0x0
0000266A  0000              add [eax],al
0000266C  F6FF              idiv bh
0000266E  FF6F02            jmp far [edi+0x2]
00002671  0000              add [eax],al
00002673  0000              add [eax],al
00002675  0000              add [eax],al
00002677  009802400000      add [eax+0x4002],bl
0000267D  0000              add [eax],al
0000267F  009802000000      add [eax+0x2],bl
00002685  0000              add [eax],al
00002687  003400            add [eax+eax],dh
0000268A  0000              add [eax],al
0000268C  0000              add [eax],al
0000268E  0000              add [eax],al
00002690  0500000000        add eax,0x0
00002695  0000              add [eax],al
00002697  0008              add [eax],cl
00002699  0000              add [eax],al
0000269B  0000              add [eax],al
0000269D  0000              add [eax],al
0000269F  0000              add [eax],al
000026A1  0000              add [eax],al
000026A3  0000              add [eax],al
000026A5  0000              add [eax],al
000026A7  003E              add [esi],bh
000026A9  0000              add [eax],al
000026AB  000B              add [ebx],cl
000026AD  0000              add [eax],al
000026AF  0002              add [edx],al
000026B1  0000              add [eax],al
000026B3  0000              add [eax],al
000026B5  0000              add [eax],al
000026B7  00D0              add al,dl
000026B9  024000            add al,[eax+0x0]
000026BC  0000              add [eax],al
000026BE  0000              add [eax],al
000026C0  D002              rol byte [edx],1
000026C2  0000              add [eax],al
000026C4  0000              add [eax],al
000026C6  0000              add [eax],al
000026C8  B802000000        mov eax,0x2
000026CD  0000              add [eax],al
000026CF  0006              add [esi],al
000026D1  0000              add [eax],al
000026D3  0001              add [ecx],al
000026D5  0000              add [eax],al
000026D7  0008              add [eax],cl
000026D9  0000              add [eax],al
000026DB  0000              add [eax],al
000026DD  0000              add [eax],al
000026DF  0018              add [eax],bl
000026E1  0000              add [eax],al
000026E3  0000              add [eax],al
000026E5  0000              add [eax],al
000026E7  004600            add [esi+0x0],al
000026EA  0000              add [eax],al
000026EC  0300              add eax,[eax]
000026EE  0000              add [eax],al
000026F0  0200              add al,[eax]
000026F2  0000              add [eax],al
000026F4  0000              add [eax],al
000026F6  0000              add [eax],al
000026F8  880540000000      mov [dword 0x40],al
000026FE  0000              add [eax],al
00002700  880500000000      mov [dword 0x0],al
00002706  0000              add [eax],al
00002708  1F                pop ds
00002709  0100              add [eax],eax
0000270B  0000              add [eax],al
0000270D  0000              add [eax],al
0000270F  0000              add [eax],al
00002711  0000              add [eax],al
00002713  0000              add [eax],al
00002715  0000              add [eax],al
00002717  0001              add [ecx],al
00002719  0000              add [eax],al
0000271B  0000              add [eax],al
0000271D  0000              add [eax],al
0000271F  0000              add [eax],al
00002721  0000              add [eax],al
00002723  0000              add [eax],al
00002725  0000              add [eax],al
00002727  004E00            add [esi+0x0],cl
0000272A  0000              add [eax],al
0000272C  FF                db 0xff
0000272D  FF                db 0xff
0000272E  FF6F02            jmp far [edi+0x2]
00002731  0000              add [eax],al
00002733  0000              add [eax],al
00002735  0000              add [eax],al
00002737  00A806400000      add [eax+0x4006],ch
0000273D  0000              add [eax],al
0000273F  00A806000000      add [eax+0x6],ch
00002745  0000              add [eax],al
00002747  003A              add [edx],bh
00002749  0000              add [eax],al
0000274B  0000              add [eax],al
0000274D  0000              add [eax],al
0000274F  000500000000      add [dword 0x0],al
00002755  0000              add [eax],al
00002757  0002              add [edx],al
00002759  0000              add [eax],al
0000275B  0000              add [eax],al
0000275D  0000              add [eax],al
0000275F  0002              add [edx],al
00002761  0000              add [eax],al
00002763  0000              add [eax],al
00002765  0000              add [eax],al
00002767  005B00            add [ebx+0x0],bl
0000276A  0000              add [eax],al
0000276C  FE                db 0xfe
0000276D  FF                db 0xff
0000276E  FF6F02            jmp far [edi+0x2]
00002771  0000              add [eax],al
00002773  0000              add [eax],al
00002775  0000              add [eax],al
00002777  00E8              add al,ch
00002779  06                push es
0000277A  40                inc eax
0000277B  0000              add [eax],al
0000277D  0000              add [eax],al
0000277F  00E8              add al,ch
00002781  06                push es
00002782  0000              add [eax],al
00002784  0000              add [eax],al
00002786  0000              add [eax],al
00002788  50                push eax
00002789  0000              add [eax],al
0000278B  0000              add [eax],al
0000278D  0000              add [eax],al
0000278F  0006              add [esi],al
00002791  0000              add [eax],al
00002793  0001              add [ecx],al
00002795  0000              add [eax],al
00002797  0008              add [eax],cl
00002799  0000              add [eax],al
0000279B  0000              add [eax],al
0000279D  0000              add [eax],al
0000279F  0000              add [eax],al
000027A1  0000              add [eax],al
000027A3  0000              add [eax],al
000027A5  0000              add [eax],al
000027A7  006A00            add [edx+0x0],ch
000027AA  0000              add [eax],al
000027AC  0400              add al,0x0
000027AE  0000              add [eax],al
000027B0  0200              add al,[eax]
000027B2  0000              add [eax],al
000027B4  0000              add [eax],al
000027B6  0000              add [eax],al
000027B8  3807              cmp [edi],al
000027BA  40                inc eax
000027BB  0000              add [eax],al
000027BD  0000              add [eax],al
000027BF  0038              add [eax],bh
000027C1  07                pop es
000027C2  0000              add [eax],al
000027C4  0000              add [eax],al
000027C6  0000              add [eax],al
000027C8  48                dec eax
000027C9  0000              add [eax],al
000027CB  0000              add [eax],al
000027CD  0000              add [eax],al
000027CF  000500000000      add [dword 0x0],al
000027D5  0000              add [eax],al
000027D7  0008              add [eax],cl
000027D9  0000              add [eax],al
000027DB  0000              add [eax],al
000027DD  0000              add [eax],al
000027DF  0018              add [eax],bl
000027E1  0000              add [eax],al
000027E3  0000              add [eax],al
000027E5  0000              add [eax],al
000027E7  00740000          add [eax+eax+0x0],dh
000027EB  000400            add [eax+eax],al
000027EE  0000              add [eax],al
000027F0  0200              add al,[eax]
000027F2  0000              add [eax],al
000027F4  0000              add [eax],al
000027F6  0000              add [eax],al
000027F8  800740            add byte [edi],0x40
000027FB  0000              add [eax],al
000027FD  0000              add [eax],al
000027FF  008007000000      add [eax+0x7],al
00002805  0000              add [eax],al
00002807  004002            add [eax+0x2],al
0000280A  0000              add [eax],al
0000280C  0000              add [eax],al
0000280E  0000              add [eax],al
00002810  050000000C        add eax,0xc000000
00002815  0000              add [eax],al
00002817  0008              add [eax],cl
00002819  0000              add [eax],al
0000281B  0000              add [eax],al
0000281D  0000              add [eax],al
0000281F  0018              add [eax],bl
00002821  0000              add [eax],al
00002823  0000              add [eax],al
00002825  0000              add [eax],al
00002827  007E00            add [esi+0x0],bh
0000282A  0000              add [eax],al
0000282C  0100              add [eax],eax
0000282E  0000              add [eax],al
00002830  06                push es
00002831  0000              add [eax],al
00002833  0000              add [eax],al
00002835  0000              add [eax],al
00002837  00C0              add al,al
00002839  094000            or [eax+0x0],eax
0000283C  0000              add [eax],al
0000283E  0000              add [eax],al
00002840  C00900            ror byte [ecx],byte 0x0
00002843  0000              add [eax],al
00002845  0000              add [eax],al
00002847  001A              add [edx],bl
00002849  0000              add [eax],al
0000284B  0000              add [eax],al
0000284D  0000              add [eax],al
0000284F  0000              add [eax],al
00002851  0000              add [eax],al
00002853  0000              add [eax],al
00002855  0000              add [eax],al
00002857  000400            add [eax+eax],al
0000285A  0000              add [eax],al
0000285C  0000              add [eax],al
0000285E  0000              add [eax],al
00002860  0000              add [eax],al
00002862  0000              add [eax],al
00002864  0000              add [eax],al
00002866  0000              add [eax],al
00002868  7900              jns 0x286a
0000286A  0000              add [eax],al
0000286C  0100              add [eax],eax
0000286E  0000              add [eax],al
00002870  06                push es
00002871  0000              add [eax],al
00002873  0000              add [eax],al
00002875  0000              add [eax],al
00002877  00E0              add al,ah
00002879  094000            or [eax+0x0],eax
0000287C  0000              add [eax],al
0000287E  0000              add [eax],al
00002880  E009              loopne 0x288b
00002882  0000              add [eax],al
00002884  0000              add [eax],al
00002886  0000              add [eax],al
00002888  90                nop
00002889  0100              add [eax],eax
0000288B  0000              add [eax],al
0000288D  0000              add [eax],al
0000288F  0000              add [eax],al
00002891  0000              add [eax],al
00002893  0000              add [eax],al
00002895  0000              add [eax],al
00002897  0010              add [eax],dl
00002899  0000              add [eax],al
0000289B  0000              add [eax],al
0000289D  0000              add [eax],al
0000289F  0010              add [eax],dl
000028A1  0000              add [eax],al
000028A3  0000              add [eax],al
000028A5  0000              add [eax],al
000028A7  00840000000100    add [eax+eax+0x10000],al
000028AE  0000              add [eax],al
000028B0  06                push es
000028B1  0000              add [eax],al
000028B3  0000              add [eax],al
000028B5  0000              add [eax],al
000028B7  00700B            add [eax+0xb],dh
000028BA  40                inc eax
000028BB  0000              add [eax],al
000028BD  0000              add [eax],al
000028BF  00700B            add [eax+0xb],dh
000028C2  0000              add [eax],al
000028C4  0000              add [eax],al
000028C6  0000              add [eax],al
000028C8  B00B              mov al,0xb
000028CA  0000              add [eax],al
000028CC  0000              add [eax],al
000028CE  0000              add [eax],al
000028D0  0000              add [eax],al
000028D2  0000              add [eax],al
000028D4  0000              add [eax],al
000028D6  0000              add [eax],al
000028D8  1000              adc [eax],al
000028DA  0000              add [eax],al
000028DC  0000              add [eax],al
000028DE  0000              add [eax],al
000028E0  0000              add [eax],al
000028E2  0000              add [eax],al
000028E4  0000              add [eax],al
000028E6  0000              add [eax],al
000028E8  8A00              mov al,[eax]
000028EA  0000              add [eax],al
000028EC  0100              add [eax],eax
000028EE  0000              add [eax],al
000028F0  06                push es
000028F1  0000              add [eax],al
000028F3  0000              add [eax],al
000028F5  0000              add [eax],al
000028F7  0020              add [eax],ah
000028F9  17                pop ss
000028FA  40                inc eax
000028FB  0000              add [eax],al
000028FD  0000              add [eax],al
000028FF  0020              add [eax],ah
00002901  17                pop ss
00002902  0000              add [eax],al
00002904  0000              add [eax],al
00002906  0000              add [eax],al
00002908  0900              or [eax],eax
0000290A  0000              add [eax],al
0000290C  0000              add [eax],al
0000290E  0000              add [eax],al
00002910  0000              add [eax],al
00002912  0000              add [eax],al
00002914  0000              add [eax],al
00002916  0000              add [eax],al
00002918  0400              add al,0x0
0000291A  0000              add [eax],al
0000291C  0000              add [eax],al
0000291E  0000              add [eax],al
00002920  0000              add [eax],al
00002922  0000              add [eax],al
00002924  0000              add [eax],al
00002926  0000              add [eax],al
00002928  90                nop
00002929  0000              add [eax],al
0000292B  0001              add [ecx],al
0000292D  0000              add [eax],al
0000292F  0002              add [edx],al
00002931  0000              add [eax],al
00002933  0000              add [eax],al
00002935  0000              add [eax],al
00002937  0030              add [eax],dh
00002939  17                pop ss
0000293A  40                inc eax
0000293B  0000              add [eax],al
0000293D  0000              add [eax],al
0000293F  0030              add [eax],dh
00002941  17                pop ss
00002942  0000              add [eax],al
00002944  0000              add [eax],al
00002946  0000              add [eax],al
00002948  58                pop eax
00002949  0000              add [eax],al
0000294B  0000              add [eax],al
0000294D  0000              add [eax],al
0000294F  0000              add [eax],al
00002951  0000              add [eax],al
00002953  0000              add [eax],al
00002955  0000              add [eax],al
00002957  0008              add [eax],cl
00002959  0000              add [eax],al
0000295B  0000              add [eax],al
0000295D  0000              add [eax],al
0000295F  0000              add [eax],al
00002961  0000              add [eax],al
00002963  0000              add [eax],al
00002965  0000              add [eax],al
00002967  009800000001      add [eax+0x1000000],bl
0000296D  0000              add [eax],al
0000296F  0002              add [edx],al
00002971  0000              add [eax],al
00002973  0000              add [eax],al
00002975  0000              add [eax],al
00002977  008817400000      add [eax+0x4017],cl
0000297D  0000              add [eax],al
0000297F  008817000000      add [eax+0x17],cl
00002985  0000              add [eax],al
00002987  007C0000          add [eax+eax+0x0],bh
0000298B  0000              add [eax],al
0000298D  0000              add [eax],al
0000298F  0000              add [eax],al
00002991  0000              add [eax],al
00002993  0000              add [eax],al
00002995  0000              add [eax],al
00002997  000400            add [eax+eax],al
0000299A  0000              add [eax],al
0000299C  0000              add [eax],al
0000299E  0000              add [eax],al
000029A0  0000              add [eax],al
000029A2  0000              add [eax],al
000029A4  0000              add [eax],al
000029A6  0000              add [eax],al
000029A8  A6                cmpsb
000029A9  0000              add [eax],al
000029AB  0001              add [ecx],al
000029AD  0000              add [eax],al
000029AF  0002              add [edx],al
000029B1  0000              add [eax],al
000029B3  0000              add [eax],al
000029B5  0000              add [eax],al
000029B7  0008              add [eax],cl
000029B9  184000            sbb [eax+0x0],al
000029BC  0000              add [eax],al
000029BE  0000              add [eax],al
000029C0  0818              or [eax],bl
000029C2  0000              add [eax],al
000029C4  0000              add [eax],al
000029C6  0000              add [eax],al
000029C8  2402              and al,0x2
000029CA  0000              add [eax],al
000029CC  0000              add [eax],al
000029CE  0000              add [eax],al
000029D0  0000              add [eax],al
000029D2  0000              add [eax],al
000029D4  0000              add [eax],al
000029D6  0000              add [eax],al
000029D8  0800              or [eax],al
000029DA  0000              add [eax],al
000029DC  0000              add [eax],al
000029DE  0000              add [eax],al
000029E0  0000              add [eax],al
000029E2  0000              add [eax],al
000029E4  0000              add [eax],al
000029E6  0000              add [eax],al
000029E8  B000              mov al,0x0
000029EA  0000              add [eax],al
000029EC  0E                push cs
000029ED  0000              add [eax],al
000029EF  0003              add [ebx],al
000029F1  0000              add [eax],al
000029F3  0000              add [eax],al
000029F5  0000              add [eax],al
000029F7  0010              add [eax],dl
000029F9  1E                push ds
000029FA  60                pusha
000029FB  0000              add [eax],al
000029FD  0000              add [eax],al
000029FF  0010              add [eax],dl
00002A01  1E                push ds
00002A02  0000              add [eax],al
00002A04  0000              add [eax],al
00002A06  0000              add [eax],al
00002A08  0800              or [eax],al
00002A0A  0000              add [eax],al
00002A0C  0000              add [eax],al
00002A0E  0000              add [eax],al
00002A10  0000              add [eax],al
00002A12  0000              add [eax],al
00002A14  0000              add [eax],al
00002A16  0000              add [eax],al
00002A18  0800              or [eax],al
00002A1A  0000              add [eax],al
00002A1C  0000              add [eax],al
00002A1E  0000              add [eax],al
00002A20  0000              add [eax],al
00002A22  0000              add [eax],al
00002A24  0000              add [eax],al
00002A26  0000              add [eax],al
00002A28  BC0000000F        mov esp,0xf000000
00002A2D  0000              add [eax],al
00002A2F  0003              add [ebx],al
00002A31  0000              add [eax],al
00002A33  0000              add [eax],al
00002A35  0000              add [eax],al
00002A37  0018              add [eax],bl
00002A39  1E                push ds
00002A3A  60                pusha
00002A3B  0000              add [eax],al
00002A3D  0000              add [eax],al
00002A3F  0018              add [eax],bl
00002A41  1E                push ds
00002A42  0000              add [eax],al
00002A44  0000              add [eax],al
00002A46  0000              add [eax],al
00002A48  0800              or [eax],al
00002A4A  0000              add [eax],al
00002A4C  0000              add [eax],al
00002A4E  0000              add [eax],al
00002A50  0000              add [eax],al
00002A52  0000              add [eax],al
00002A54  0000              add [eax],al
00002A56  0000              add [eax],al
00002A58  0800              or [eax],al
00002A5A  0000              add [eax],al
00002A5C  0000              add [eax],al
00002A5E  0000              add [eax],al
00002A60  0000              add [eax],al
00002A62  0000              add [eax],al
00002A64  0000              add [eax],al
00002A66  0000              add [eax],al
00002A68  C8000000          enter 0x0,0x0
00002A6C  0100              add [eax],eax
00002A6E  0000              add [eax],al
00002A70  0300              add eax,[eax]
00002A72  0000              add [eax],al
00002A74  0000              add [eax],al
00002A76  0000              add [eax],al
00002A78  201E              and [esi],bl
00002A7A  60                pusha
00002A7B  0000              add [eax],al
00002A7D  0000              add [eax],al
00002A7F  0020              add [eax],ah
00002A81  1E                push ds
00002A82  0000              add [eax],al
00002A84  0000              add [eax],al
00002A86  0000              add [eax],al
00002A88  0800              or [eax],al
00002A8A  0000              add [eax],al
00002A8C  0000              add [eax],al
00002A8E  0000              add [eax],al
00002A90  0000              add [eax],al
00002A92  0000              add [eax],al
00002A94  0000              add [eax],al
00002A96  0000              add [eax],al
00002A98  0800              or [eax],al
00002A9A  0000              add [eax],al
00002A9C  0000              add [eax],al
00002A9E  0000              add [eax],al
00002AA0  0000              add [eax],al
00002AA2  0000              add [eax],al
00002AA4  0000              add [eax],al
00002AA6  0000              add [eax],al
00002AA8  CD00              int 0x0
00002AAA  0000              add [eax],al
00002AAC  06                push es
00002AAD  0000              add [eax],al
00002AAF  0003              add [ebx],al
00002AB1  0000              add [eax],al
00002AB3  0000              add [eax],al
00002AB5  0000              add [eax],al
00002AB7  0028              add [eax],ch
00002AB9  1E                push ds
00002ABA  60                pusha
00002ABB  0000              add [eax],al
00002ABD  0000              add [eax],al
00002ABF  0028              add [eax],ch
00002AC1  1E                push ds
00002AC2  0000              add [eax],al
00002AC4  0000              add [eax],al
00002AC6  0000              add [eax],al
00002AC8  D001              rol byte [ecx],1
00002ACA  0000              add [eax],al
00002ACC  0000              add [eax],al
00002ACE  0000              add [eax],al
00002AD0  06                push es
00002AD1  0000              add [eax],al
00002AD3  0000              add [eax],al
00002AD5  0000              add [eax],al
00002AD7  0008              add [eax],cl
00002AD9  0000              add [eax],al
00002ADB  0000              add [eax],al
00002ADD  0000              add [eax],al
00002ADF  0010              add [eax],dl
00002AE1  0000              add [eax],al
00002AE3  0000              add [eax],al
00002AE5  0000              add [eax],al
00002AE7  00D6              add dh,dl
00002AE9  0000              add [eax],al
00002AEB  0001              add [ecx],al
00002AED  0000              add [eax],al
00002AEF  0003              add [ebx],al
00002AF1  0000              add [eax],al
00002AF3  0000              add [eax],al
00002AF5  0000              add [eax],al
00002AF7  00F8              add al,bh
00002AF9  1F                pop ds
00002AFA  60                pusha
00002AFB  0000              add [eax],al
00002AFD  0000              add [eax],al
00002AFF  00F8              add al,bh
00002B01  1F                pop ds
00002B02  0000              add [eax],al
00002B04  0000              add [eax],al
00002B06  0000              add [eax],al
00002B08  0800              or [eax],al
00002B0A  0000              add [eax],al
00002B0C  0000              add [eax],al
00002B0E  0000              add [eax],al
00002B10  0000              add [eax],al
00002B12  0000              add [eax],al
00002B14  0000              add [eax],al
00002B16  0000              add [eax],al
00002B18  0800              or [eax],al
00002B1A  0000              add [eax],al
00002B1C  0000              add [eax],al
00002B1E  0000              add [eax],al
00002B20  0800              or [eax],al
00002B22  0000              add [eax],al
00002B24  0000              add [eax],al
00002B26  0000              add [eax],al
00002B28  DB00              fild dword [eax]
00002B2A  0000              add [eax],al
00002B2C  0100              add [eax],eax
00002B2E  0000              add [eax],al
00002B30  0300              add eax,[eax]
00002B32  0000              add [eax],al
00002B34  0000              add [eax],al
00002B36  0000              add [eax],al
00002B38  0020              add [eax],ah
00002B3A  60                pusha
00002B3B  0000              add [eax],al
00002B3D  0000              add [eax],al
00002B3F  0000              add [eax],al
00002B41  2000              and [eax],al
00002B43  0000              add [eax],al
00002B45  0000              add [eax],al
00002B47  00D8              add al,bl
00002B49  0000              add [eax],al
00002B4B  0000              add [eax],al
00002B4D  0000              add [eax],al
00002B4F  0000              add [eax],al
00002B51  0000              add [eax],al
00002B53  0000              add [eax],al
00002B55  0000              add [eax],al
00002B57  0008              add [eax],cl
00002B59  0000              add [eax],al
00002B5B  0000              add [eax],al
00002B5D  0000              add [eax],al
00002B5F  0008              add [eax],cl
00002B61  0000              add [eax],al
00002B63  0000              add [eax],al
00002B65  0000              add [eax],al
00002B67  00E4              add ah,ah
00002B69  0000              add [eax],al
00002B6B  0001              add [ecx],al
00002B6D  0000              add [eax],al
00002B6F  0003              add [ebx],al
00002B71  0000              add [eax],al
00002B73  0000              add [eax],al
00002B75  0000              add [eax],al
00002B77  00E0              add al,ah
00002B79  206000            and [eax+0x0],ah
00002B7C  0000              add [eax],al
00002B7E  0000              add [eax],al
00002B80  E020              loopne 0x2ba2
00002B82  0000              add [eax],al
00002B84  0000              add [eax],al
00002B86  0000              add [eax],al
00002B88  3C03              cmp al,0x3
00002B8A  0000              add [eax],al
00002B8C  0000              add [eax],al
00002B8E  0000              add [eax],al
00002B90  0000              add [eax],al
00002B92  0000              add [eax],al
00002B94  0000              add [eax],al
00002B96  0000              add [eax],al
00002B98  2000              and [eax],al
00002B9A  0000              add [eax],al
00002B9C  0000              add [eax],al
00002B9E  0000              add [eax],al
00002BA0  0000              add [eax],al
00002BA2  0000              add [eax],al
00002BA4  0000              add [eax],al
00002BA6  0000              add [eax],al
00002BA8  EA000000080000    jmp 0x0:0x8000000
00002BAF  0003              add [ebx],al
00002BB1  0000              add [eax],al
00002BB3  0000              add [eax],al
00002BB5  0000              add [eax],al
00002BB7  0020              add [eax],ah
00002BB9  2460              and al,0x60
00002BBB  0000              add [eax],al
00002BBD  0000              add [eax],al
00002BBF  001C24            add [esp],bl
00002BC2  0000              add [eax],al
00002BC4  0000              add [eax],al
00002BC6  0000              add [eax],al
00002BC8  2801              sub [ecx],al
00002BCA  0000              add [eax],al
00002BCC  0000              add [eax],al
00002BCE  0000              add [eax],al
00002BD0  0000              add [eax],al
00002BD2  0000              add [eax],al
00002BD4  0000              add [eax],al
00002BD6  0000              add [eax],al
00002BD8  2000              and [eax],al
00002BDA  0000              add [eax],al
00002BDC  0000              add [eax],al
00002BDE  0000              add [eax],al
00002BE0  0000              add [eax],al
00002BE2  0000              add [eax],al
00002BE4  0000              add [eax],al
00002BE6  0000              add [eax],al
00002BE8  EF                out dx,eax
00002BE9  0000              add [eax],al
00002BEB  0001              add [ecx],al
00002BED  0000              add [eax],al
00002BEF  0030              add [eax],dh
00002BF1  0000              add [eax],al
00002BF3  0000              add [eax],al
00002BF5  0000              add [eax],al
00002BF7  0000              add [eax],al
00002BF9  0000              add [eax],al
00002BFB  0000              add [eax],al
00002BFD  0000              add [eax],al
00002BFF  001C24            add [esp],bl
00002C02  0000              add [eax],al
00002C04  0000              add [eax],al
00002C06  0000              add [eax],al
00002C08  4F                dec edi
00002C09  0000              add [eax],al
00002C0B  0000              add [eax],al
00002C0D  0000              add [eax],al
00002C0F  0000              add [eax],al
00002C11  0000              add [eax],al
00002C13  0000              add [eax],al
00002C15  0000              add [eax],al
00002C17  0001              add [ecx],al
00002C19  0000              add [eax],al
00002C1B  0000              add [eax],al
00002C1D  0000              add [eax],al
00002C1F  0001              add [ecx],al
00002C21  0000              add [eax],al
00002C23  0000              add [eax],al
00002C25  0000              add [eax],al
00002C27  0001              add [ecx],al
00002C29  0000              add [eax],al
00002C2B  0003              add [ebx],al
00002C2D  0000              add [eax],al
00002C2F  0000              add [eax],al
00002C31  0000              add [eax],al
00002C33  0000              add [eax],al
00002C35  0000              add [eax],al
00002C37  0000              add [eax],al
00002C39  0000              add [eax],al
00002C3B  0000              add [eax],al
00002C3D  0000              add [eax],al
00002C3F  006B24            add [ebx+0x24],ch
00002C42  0000              add [eax],al
00002C44  0000              add [eax],al
00002C46  0000              add [eax],al
00002C48  F8                clc
00002C49  0000              add [eax],al
00002C4B  0000              add [eax],al
00002C4D  0000              add [eax],al
00002C4F  0000              add [eax],al
00002C51  0000              add [eax],al
00002C53  0000              add [eax],al
00002C55  0000              add [eax],al
00002C57  0001              add [ecx],al
00002C59  0000              add [eax],al
00002C5B  0000              add [eax],al
00002C5D  0000              add [eax],al
00002C5F  0000              add [eax],al
00002C61  0000              add [eax],al
00002C63  0000              add [eax],al
00002C65  0000              add [eax],al
00002C67  00                db 0x00
